"File: Sevro_TM_button.c  Assembler  Version HGASM0202      Page 1


   1  0000              ; Generated by holtek-gcc v3.18, Mon Nov 05 14:17:03 2018
   2  0000              ; 
   3  0000              ; Configuration:
   4  0000              ;       with long instruction
   5  0000              ;       Multi-ROM, Multi-RAM
   6  0000              ;       bits_per_rom_unit:16
   7  0000              ;       with mp1
   8  0000              ;       with tbhp, address(0x9)
   9  0000              ;          Use tabrd-const
  10  0000              ;       
  11  0000              ; SFR address of long-instruction arch:
  12  0000              ;    mp0 = -1,1,0
  13  0000              ;    mp1 = 4,3,2
  14  0000              ;    mp2 = 14,13,12
  15  0000              ;    tbp = 9,7,8
  16  0000              ;    acc = 5
  17  0000              ;    pcl = 6
  18  0000              ;    status = 10
  19  0000              ;    bp = 11
  20  0000              ;    intc = 48
  21  0000              ;       
  22  0000              ;       
  23  0000              ; use 'tabrdc' instead of 'tabrd'
  24  0000              ;       
  25  0000              
  26  0000              #pragma translator "holtek-gcc 4.6.4" "3.18" "build 20130711"
  27  0000              ; Rebuild 521
  28  0000              
  29  0000              ir equ [2]
  30  0000              mp equ [3]
  31  0000              sbp equ [4]
  32  0000              acc equ [5]
  33  0000              bp equ [11]
  34  0000              tblp equ [7]
  35  0000              tbhp equ [9]
  36  0000              status equ [10]
  37  0000              c equ [10].0
  38  0000              ac equ [10].1
  39  0000              z equ [10].2
  40  0000              ov equ [10].3
  41  0000              cz equ [10].6
  42  0000              sc equ [10].7
  43  0000              intc equ [48]
  44  0000              
  45  0000              extern ra:byte
  46  0000              extern rb:byte
  47  0000              extern rc:byte
  48  0000              extern rd:byte
  49  0000              extern re:byte
  50  0000              extern rf:byte
  51  0000              extern rg:byte
  52  0000              extern rh:byte
  53  0000              extern _Crom2Prom:near
  54  0000              extern _Crom2PromNext:near
  55  0000              
  56  0000              RAMBANK 0 @BITDATASEC, @BITDATASEC1
  57  0000              @HCCINIT	.section 'data'
  58  0000              @HCCINIT0	.section 'data'
  59  0000              @BITDATASEC	 .section 'data'
"File: Sevro_TM_button.ASM  Assembler  Version HGASM0202      Page 2

  60  0000              @BITDATASEC1	 .section 'data'
  61  0000              
  62  0000              #pragma debug scope 1 1
  63  0000              	extern __DELAY3:near
  64  0000              	extern __DELAYX3:near
  65  0000              	extern __DELAYX6:near
  66  0000              	extern __DELAYY5:near
  67  0000              	extern __DELAYY3:near
  68  0000              	extern _builtin_holtek_delay_2:byte
  69  0000              ___intc0 equ [48]
  70  0000              ___mfi0 equ [52]
  71  0000              public _ISR_tmr0_tmr2
  72  0000              #pragma debug scope 2 1

   8  0000              #line 8 "D:\Users\IIIT\Desktop\Sevro_TM_button\Interrupt.h"
   8  0000              rombank 0 @ISR_tmr0_tmr2_code
   8  0000              @ISR_tmr0_tmr2_code .section at 20 'code'
   8  0000  0080     E  	mov r1,a
   8  0001  070B        	mov a,bp
   8  0002  1F0B        	clr bp
   8  0003  2800     R  	jmp _ISR_tmr0_tmr2
   8  0004              ROMBANK 0 _ISR_tmr0_tmr2
   8  0004              #pragma debug scope 1 1
   8  0004              @dummy20 endp
   8  0004              #pragma debug scope 3 1
   8  0000              _ISR_tmr0_tmr2 .section 'code'
   8  0000              _ISR_tmr0_tmr2 proc
   8  0000  0080     E  	mov r2,a
   8  0001  070A        	mov a, status
   8  0002  0080     E  	mov r3,a
  12  0003              #line 12 "D:\Users\IIIT\Desktop\Sevro_TM_button\Interrupt.h"
  12  0003  3430        	clr [48].0
  13  0004              #line 13 "D:\Users\IIIT\Desktop\Sevro_TM_button\Interrupt.h"
  13  0004  36B4        	clr [52].5
  14  0005              #line 14 "D:\Users\IIIT\Desktop\Sevro_TM_button\Interrupt.h"
  14  0005  0F01        	mov a,1
  14  0006  0080     E  	mov _flag[0],a
  14  0007  1F00     E  	clr _flag[1]
  15  0008              #line 15 "D:\Users\IIIT\Desktop\Sevro_TM_button\Interrupt.h"
  15  0008  3030        	set [48].0
  15  0009  0700     E  	mov a,r2
  15  000A  008B        	mov bp,a
  15  000B  0700     E  	mov a,r3
  15  000C  008A        	mov status,a
  15  000D  0700     E  	mov a,r1
  15  000E  0004        	reti
  15  000F              _ISR_tmr0_tmr2 endp
  15  000F              
  15  000F              #line 15 "D:\Users\IIIT\Desktop\Sevro_TM_button\Interrupt.h"
  15  000F              #pragma debug scope 1 1
  15  000F              ___tm4c0 equ [336]
  15  000F              ___tm4c1 equ [337]
  15  000F              ___tm4al equ [340]
  15  000F              ___tm4ah equ [341]
  15  000F              ___intc3 equ [51]
  15  000F              ___mfi4 equ [56]
  15  000F              public _TM_Set
  15  000F              #pragma debug scope 4 1

  85  000F              #line 85 "D:\Users\IIIT\Desktop\Sevro_TM_button\Sevro_TM_button.c"
"File: Sevro_TM_button.c  Assembler  Version HGASM0202      Page 3

  85  0000              _TM_Set .section 'code'
  85  0000              _TM_Set proc
  86  0000              #line 86 "D:\Users\IIIT\Desktop\Sevro_TM_button\Sevro_TM_button.c"
  86  0000  0F20        	mov a,32
  86  0001  80D0 0001   	lmov [336],a
  87  0003              #line 87 "D:\Users\IIIT\Desktop\Sevro_TM_button\Sevro_TM_button.c"
  87  0003  0FC1        	mov a,193
  87  0004  80D1 0001   	lmov [337],a
  88  0006              #line 88 "D:\Users\IIIT\Desktop\Sevro_TM_button\Sevro_TM_button.c"
  88  0006  0F88        	mov a,136
  88  0007  80D4 0001   	lmov [340],a
  88  0009  0F13        	mov a,19
  88  000A  80D5 0001   	lmov [341],a
  89  000C              #line 89 "D:\Users\IIIT\Desktop\Sevro_TM_button\Sevro_TM_button.c"
  89  000C  3133        	set [51].2
  89  000D  30B8        	set [56].1
  90  000E              #line 90 "D:\Users\IIIT\Desktop\Sevro_TM_button\Sevro_TM_button.c"
  90  000E  B1D0 0001   	lset [336].3
  91  0010              #line 91 "D:\Users\IIIT\Desktop\Sevro_TM_button\Sevro_TM_button.c"
  91  0010  1F00     R  	clr _SEC[0]
  91  0011  0F64        	mov a,100
  91  0012  0080     R  	mov _R1sec[0],a
  91  0013  0F05        	mov a,5
  91  0014  0080     R  	mov _AD50ms[0],a
  91  0015  0003        	ret
  91  0016              _TM_Set endp
  91  0016              #line 91 "D:\Users\IIIT\Desktop\Sevro_TM_button\Sevro_TM_button.c"
  91  0016              #pragma debug scope 1 1
  91  0016              ___pac equ [19]
  91  0016              ___papu equ [17]
  91  0016              ___integ equ [57]
  91  0016              ___ifs0 equ [328]
  91  0016              ___ifs1 equ [329]
  91  0016              public _Interrupt_Set
  91  0016              #pragma debug scope 5 1
  94  0016              #line 94 "D:\Users\IIIT\Desktop\Sevro_TM_button\Sevro_TM_button.c"
  94  0000              _Interrupt_Set .section 'code'
  94  0000              _Interrupt_Set proc
  95  0000              #line 95 "D:\Users\IIIT\Desktop\Sevro_TM_button\Sevro_TM_button.c"
  95  0000  3193        	set [19].3
  95  0001  3191        	set [17].3
  96  0002              #line 96 "D:\Users\IIIT\Desktop\Sevro_TM_button\Sevro_TM_button.c"
  96  0002  3213        	set [19].4
  96  0003  3211        	set [17].4
  97  0004              #line 97 "D:\Users\IIIT\Desktop\Sevro_TM_button\Sevro_TM_button.c"
  97  0004  0F06        	mov a,6
  97  0005  00B9        	mov [57],a
  98  0006              #line 98 "D:\Users\IIIT\Desktop\Sevro_TM_button\Sevro_TM_button.c"
  98  0006  30B0        	set [48].1
  99  0007              #line 99 "D:\Users\IIIT\Desktop\Sevro_TM_button\Sevro_TM_button.c"
  99  0007  9F48 0001   	lclr [328]
 100  0009              #line 100 "D:\Users\IIIT\Desktop\Sevro_TM_button\Sevro_TM_button.c"
 100  0009  3130        	set [48].2
 101  000A              #line 101 "D:\Users\IIIT\Desktop\Sevro_TM_button\Sevro_TM_button.c"
 101  000A  9F49 0001   	lclr [329]
 101  000C  0003        	ret
 101  000D              _Interrupt_Set endp
 101  000D              #line 101 "D:\Users\IIIT\Desktop\Sevro_TM_button\Sevro_TM_button.c"
 101  000D              #pragma debug scope 1 1
 101  000D              ___pec equ [35]
"File: Sevro_TM_button.c  Assembler  Version HGASM0202      Page 4

 101  000D              ___pepu equ [33]
 101  000D              ___pds2 equ [366]
 101  000D              ___tm2c0 equ [81]
 101  000D              ___tm2c1 equ [82]
 101  000D              ___tm2rp equ [87]
 101  000D              public _Moto_Set
 101  000D              #pragma debug scope 6 1
 104  000D              #line 104 "D:\Users\IIIT\Desktop\Sevro_TM_button\Sevro_TM_button.c"
 104  0000              _Moto_Set .section 'code'
 104  0000              _Moto_Set proc
 105  0000              #line 105 "D:\Users\IIIT\Desktop\Sevro_TM_button\Sevro_TM_button.c"
 105  0000  3023        	set [35].0
 105  0001  3021        	set [33].0
 106  0002              #line 106 "D:\Users\IIIT\Desktop\Sevro_TM_button\Sevro_TM_button.c"
 106  0002  30A3        	set [35].1
 106  0003  30A1        	set [33].1
 107  0004              #line 107 "D:\Users\IIIT\Desktop\Sevro_TM_button\Sevro_TM_button.c"
 107  0004  0F01        	mov a,1
 107  0005  80EE 0001   	lmov [366],a
 108  0007              #line 108 "D:\Users\IIIT\Desktop\Sevro_TM_button\Sevro_TM_button.c"
 108  0007  1F51        	clr [81]
 109  0008              #line 109 "D:\Users\IIIT\Desktop\Sevro_TM_button\Sevro_TM_button.c"
 109  0008  0FA8        	mov a,168
 109  0009  00D2        	mov [82],a
 110  000A              #line 110 "D:\Users\IIIT\Desktop\Sevro_TM_button\Sevro_TM_button.c"
 110  000A  0FA0        	mov a,160
 110  000B  00D7        	mov [87],a
 111  000C              #line 111 "D:\Users\IIIT\Desktop\Sevro_TM_button\Sevro_TM_button.c"
 111  000C  31D1        	set [81].3
 111  000D  0003        	ret
 111  000E              _Moto_Set endp
 111  000E              #line 111 "D:\Users\IIIT\Desktop\Sevro_TM_button\Sevro_TM_button.c"
 111  000E              #pragma debug scope 1 1
 111  000E              ___tm2al equ [85]
 111  000E              ___tm2ah equ [86]
 111  000E              public _Moto_C
 111  000E              #pragma debug scope 7 1
 114  000E              #line 114 "D:\Users\IIIT\Desktop\Sevro_TM_button\Sevro_TM_button.c"
 114  0000              _Moto_C .section 'code'
 114  0000              _Moto_C proc
 114  0000  00              local _Moto_C_2 db 1 dup(?)	; 0,1
 114  0000  0080     R  	mov _Moto_C_2[0],a
 114  0001              #pragma debug variable 8 7 _Moto_C_2+0 "angle"
 115  0001              #line 115 "D:\Users\IIIT\Desktop\Sevro_TM_button\Sevro_TM_button.c"
 115  0001  0700     R  	mov a,_Index[0]  
 115  0002  0080     E  	mov _builtin_holtek_mulhi3_2[0],a  
 115  0003  0700     R  	mov a,_Index[1]  
 115  0004  0080     E  	mov _builtin_holtek_mulhi3_2[1],a
 115  0005  0F14        	mov a,20  
 115  0006  0080     E  	mov _builtin_holtek_mulhi3_2[2],a  
 115  0007  1F00     E  	clr _builtin_holtek_mulhi3_2[3]
 115  0008              	fcall _builtin_holtek_mulhi3
 115  000F  0700     E  	mov a,_builtin_holtek_mulhi3_2[4]  
 115  0010  0080     E  	mov rd,a  
 115  0011  0700     E  	mov a,_builtin_holtek_mulhi3_2[5]  
 115  0012  0080     E  	mov re,a
 115  0013  0FE8        	mov a,232
 115  0014  0380     E  	addm a,rd
 115  0015  0F03        	mov a,3
 115  0016  1380     E  	adcm a,re
"File: Sevro_TM_button.c  Assembler  Version HGASM0202      Page 5

 116  0017              #line 116 "D:\Users\IIIT\Desktop\Sevro_TM_button\Sevro_TM_button.c"
 116  0017  0700     E  	mov a,rd
 116  0018  0080     E  	mov rb,a
 116  0019  0700     E  	mov a,re
 116  001A  0080     E  	mov rc,a
 116  001B  0FFF        	mov a,255  
 116  001C  0680     E  	andm a,rb  
 116  001D  0F80        	mov a,128  
 116  001E  0680     E  	andm a,rc
 116  001F  3800     E  	snz rc.7
 116  0020  2800     R  	jmp _L6
 116  0021              #line 116 "D:\Users\IIIT\Desktop\Sevro_TM_button\Sevro_TM_button.c"
 116  0021  0FFF        	mov a,255
 116  0022  0380     E  	addm a,rb
 116  0023  0FFF        	mov a,255
 116  0024  1380     E  	adcm a,rc
 116  0025  0FFF        	mov a,255
 116  0026  0580     E  	orm a,rc
 116  0027  0F00        	mov a,0
 116  0028  0580     E  	orm a,rb
 116  0029  1480     E  	inc rb
 116  002A  3D0A        	sz z
 116  002B  1480     E  	inc rc
 116  002C              _L6:
 116  002C  0700     E  	mov a,rb
 116  002D  00D5        	mov [85],a
 117  002E              #line 117 "D:\Users\IIIT\Desktop\Sevro_TM_button\Sevro_TM_button.c"
 117  002E  0700     E  	mov a,rd
 117  002F  0080     E  	mov rb,a
 117  0030  0700     E  	mov a,re
 117  0031  0080     E  	mov rc,a
 117  0032  3800     E  	snz re.7
 117  0033  2800     R  	jmp _L7
 117  0034  0FFF        	mov a,255
 117  0035  0300     E  	add a,rd
 117  0036  0080     E  	mov rb,a
 117  0037  0F00        	mov a,0
 117  0038  1300     E  	adc a,re
 117  0039  0080     E  	mov rc,a
 117  003A              _L7:
 117  003A  0700     E  	mov a,rc
 117  003B  00D6        	mov [86],a
 118  003C              #line 118 "D:\Users\IIIT\Desktop\Sevro_TM_button\Sevro_TM_button.c"
 118  003C  0700     E  	mov a,rd
 118  003D  0080     E  	mov ra,a
 118  003E  0700     E  	mov a,re
 118  003F  0080     E  	mov rb,a
 118  0040  1A00     E  	rlca rb
 118  0041  1B80     E  	rrc rb
 118  0042  1B80     E  	rrc ra
 118  0043  0700     E  	mov a,ra
 118  0044  0080     R  	mov _temp[0],a
 118  0045  0700     E  	mov a,rb
 118  0046  0080     R  	mov _temp[1],a
 119  0047              #line 119 "D:\Users\IIIT\Desktop\Sevro_TM_button\Sevro_TM_button.c"
 119  0047  0700     R  	mov a,_Moto_C_2[0]
 119  0048  0080     R  	mov _Index[0],a
 119  0049  1F00     R  	clr _Index[1]
 119  004A  0003        	ret
 119  004B              _Moto_C endp
"File: Sevro_TM_button.c  Assembler  Version HGASM0202      Page 6

 119  004B              #line 119 "D:\Users\IIIT\Desktop\Sevro_TM_button\Sevro_TM_button.c"
 119  004B              #pragma debug scope 1 1
 119  004B              ___adcr0 equ [104]
 119  004B              ___adcr1 equ [105]
 119  004B              ___pas0 equ [352]
 119  004B              ___pas3 equ [355]
 119  004B              public _AD_Set
 119  004B              #pragma debug scope 8 1
 122  004B              #line 122 "D:\Users\IIIT\Desktop\Sevro_TM_button\Sevro_TM_button.c"
 122  0000              _AD_Set .section 'code'
 122  0000              _AD_Set proc
 123  0000              #line 123 "D:\Users\IIIT\Desktop\Sevro_TM_button\Sevro_TM_button.c"
 123  0000  0F01        	mov a,1
 123  0001  00E8        	mov [104],a
 124  0002              #line 124 "D:\Users\IIIT\Desktop\Sevro_TM_button\Sevro_TM_button.c"
 124  0002  0F06        	mov a,6
 124  0003  00E9        	mov [105],a
 125  0004              #line 125 "D:\Users\IIIT\Desktop\Sevro_TM_button\Sevro_TM_button.c"
 125  0004  0F30        	mov a,48
 125  0005  80E0 0001   	lmov [352],a
 126  0007              #line 126 "D:\Users\IIIT\Desktop\Sevro_TM_button\Sevro_TM_button.c"
 126  0007  0F03        	mov a,3
 126  0008  80E3 0001   	lmov [355],a
 126  000A  0003        	ret
 126  000B              _AD_Set endp
 126  000B              #line 126 "D:\Users\IIIT\Desktop\Sevro_TM_button\Sevro_TM_button.c"
 126  000B              #pragma debug scope 1 1
 126  000B              ___pb equ [22]
 126  000B              public _button_up
 126  000B              #pragma debug scope 9 1
 130  000B              #line 130 "D:\Users\IIIT\Desktop\Sevro_TM_button\Sevro_TM_button.c"
 130  000B              rombank 0 @button_up_code
 130  0000              @button_up_code .section at 4 'code'
 130  0000  0080     E  	mov r1,a
 130  0001  070B        	mov a,bp
 130  0002  1F0B        	clr bp
 130  0003  2800     R  	jmp _button_up
 130  0004              ROMBANK 0 _button_up
 130  0004              #pragma debug scope 1 1
 130  0004              @dummy4 endp
 130  0004              #pragma debug scope 10 1
 130  0000              _button_up .section 'code'
 130  0000              _button_up proc
 130  0000  0080     E  	mov r2,a
 130  0001  070A        	mov a, status
 130  0002  0080     E  	mov r3,a
 131  0003              #line 131 "D:\Users\IIIT\Desktop\Sevro_TM_button\Sevro_TM_button.c"
 131  0003  3796        	clr [22].7
 132  0004              #line 132 "D:\Users\IIIT\Desktop\Sevro_TM_button\Sevro_TM_button.c"
 132  0004  3630        	clr [48].4
 132  0005  0700     E  	mov a,r2
 132  0006  008B        	mov bp,a
 132  0007  0700     E  	mov a,r3
 132  0008  008A        	mov status,a
 132  0009  0700     E  	mov a,r1
 132  000A  0004        	reti
 132  000B              _button_up endp
 132  000B              
 132  000B              #line 132 "D:\Users\IIIT\Desktop\Sevro_TM_button\Sevro_TM_button.c"
 132  000B              #pragma debug scope 1 1
"File: Sevro_TM_button.c  Assembler  Version HGASM0202      Page 7

 132  000B              public _Button_Down
 132  000B              #pragma debug scope 11 1
 137  000B              #line 137 "D:\Users\IIIT\Desktop\Sevro_TM_button\Sevro_TM_button.c"
 137  000B              rombank 0 @Button_Down_code
 137  0000              @Button_Down_code .section at 8 'code'
 137  0000  0080     E  	mov r1,a
 137  0001  070B        	mov a,bp
 137  0002  1F0B        	clr bp
 137  0003  2800     R  	jmp _Button_Down
 137  0004              ROMBANK 0 _Button_Down
 137  0004              #pragma debug scope 1 1
 137  0004              @dummy8 endp
 137  0004              #pragma debug scope 12 1
 137  0000              _Button_Down .section 'code'
 137  0000              _Button_Down proc
 137  0000  0080     E  	mov r2,a
 137  0001  070A        	mov a, status
 137  0002  0080     E  	mov r3,a
 138  0003              #line 138 "D:\Users\IIIT\Desktop\Sevro_TM_button\Sevro_TM_button.c"
 138  0003  3396        	set [22].7
 139  0004              #line 139 "D:\Users\IIIT\Desktop\Sevro_TM_button\Sevro_TM_button.c"
 139  0004  36B0        	clr [48].5
 139  0005  0700     E  	mov a,r2
 139  0006  008B        	mov bp,a
 139  0007  0700     E  	mov a,r3
 139  0008  008A        	mov status,a
 139  0009  0700     E  	mov a,r1
 139  000A  0004        	reti
 139  000B              _Button_Down endp
 139  000B              
 139  000B              #line 139 "D:\Users\IIIT\Desktop\Sevro_TM_button\Sevro_TM_button.c"
 139  000B              #pragma debug scope 1 1
 139  000B              ___adrh equ [107]
 139  000B              ___pg equ [42]
 139  000B              public _ISR_STM
 139  000B              #pragma debug scope 13 1
 142  000B              #line 142 "D:\Users\IIIT\Desktop\Sevro_TM_button\Sevro_TM_button.c"
 142  000B              rombank 0 @ISR_STM_code
 142  0000              @ISR_STM_code .section at 56 'code'
 142  0000  0080     E  	mov r1,a
 142  0001  070B        	mov a,bp
 142  0002  1F0B        	clr bp
 142  0003  2800     R  	jmp _ISR_STM
 142  0004              ROMBANK 0 _ISR_STM
 142  0004              #pragma debug scope 1 1
 142  0004              @dummy56 endp
 142  0004              #pragma debug scope 14 1
 142  0000              _ISR_STM .section 'code'
 142  0000              _ISR_STM proc
 142  0000  0080     E  	mov r2,a
 142  0001  070A        	mov a, status
 142  0002  0080     E  	mov r3,a
 143  0003              #line 143 "D:\Users\IIIT\Desktop\Sevro_TM_button\Sevro_TM_button.c"
 143  0003  1500     R  	deca _AD50ms[0]
 143  0004  0080     E  	mov ra,a
 143  0005  1E00     E  	snz ra
 143  0006  2800     R  	jmp _L13
 143  0007              #line 143 "D:\Users\IIIT\Desktop\Sevro_TM_button\Sevro_TM_button.c"
 143  0007  0700     E  	mov a,ra
 143  0008  0080     R  	mov _AD50ms[0],a
"File: Sevro_TM_button.c  Assembler  Version HGASM0202      Page 8

 143  0009  2800     R  	jmp _L14
 143  000A              _L13:
 144  000A              #line 144 "D:\Users\IIIT\Desktop\Sevro_TM_button\Sevro_TM_button.c"
 144  000A  0F01        	mov a,1
 144  000B  0080     R  	mov _AD50ms[0],a
 145  000C              #line 145 "D:\Users\IIIT\Desktop\Sevro_TM_button\Sevro_TM_button.c"
 145  000C  33E8        	set [104].7
 145  000D  37E8        	clr [104].7
 146  000E              #line 146 "D:\Users\IIIT\Desktop\Sevro_TM_button\Sevro_TM_button.c"
 146  000E  016B        	cpla [107]
 146  000F  00AA        	mov [42],a
 147  0010              #line 147 "D:\Users\IIIT\Desktop\Sevro_TM_button\Sevro_TM_button.c"
 147  0010  076B        	mov a,[107]
 147  0011  0080     R  	mov _AxisX[0],a
 147  0012  1F00     R  	clr _AxisX[1]
 148  0013              #line 148 "D:\Users\IIIT\Desktop\Sevro_TM_button\Sevro_TM_button.c"
 148  0013  0F00     R  	mov a,low offset _AxisX
 148  0014  0080     R  	mov _l[0],a
 148  0015  0F00     R  	mov a,high offset _AxisX
 148  0016  0080     R  	mov _l[1],a
 148  0017              _L14:
 150  0017              #line 150 "D:\Users\IIIT\Desktop\Sevro_TM_button\Sevro_TM_button.c"
 150  0017  1500     R  	deca _R1sec[0]
 150  0018  0080     E  	mov ra,a
 150  0019  0700     E  	mov a,ra
 150  001A  0080     R  	mov _R1sec[0],a
 150  001B  1080     E  	sz ra
 150  001C  2800     R  	jmp _L16
 151  001D              #line 151 "D:\Users\IIIT\Desktop\Sevro_TM_button\Sevro_TM_button.c"
 151  001D  0F64        	mov a,100
 151  001E  0080     R  	mov _R1sec[0],a
 152  001F              #line 152 "D:\Users\IIIT\Desktop\Sevro_TM_button\Sevro_TM_button.c"
 152  001F  3316        	set [22].6
 154  0020              #line 154 "D:\Users\IIIT\Desktop\Sevro_TM_button\Sevro_TM_button.c"
 154  0020  1400     R  	inca _SEC[0]
 154  0021  0080     E  	mov ra,a
 154  0022  0700     E  	mov a,ra
 154  0023  0080     R  	mov _SEC[0],a
 154  0024  0700     E  	mov a,ra
 154  0025  0A05        	sub a,5
 154  0026  390A        	snz z
 154  0027  2800     R  	jmp _L16
 156  0028              #line 156 "D:\Users\IIIT\Desktop\Sevro_TM_button\Sevro_TM_button.c"
 156  0028  1F00     R  	clr _SEC[0]
 157  0029              #line 157 "D:\Users\IIIT\Desktop\Sevro_TM_button\Sevro_TM_button.c"
 157  0029  3716        	clr [22].6
 157  002A              _L16:
 161  002A              #line 161 "D:\Users\IIIT\Desktop\Sevro_TM_button\Sevro_TM_button.c"
 161  002A  36B8        	clr [56].5
 161  002B  0700     E  	mov a,r2
 161  002C  008B        	mov bp,a
 161  002D  0700     E  	mov a,r3
 161  002E  008A        	mov status,a
 161  002F  0700     E  	mov a,r1
 161  0030  0004        	reti
 161  0031              _ISR_STM endp
 161  0031              
 161  0031              #line 161 "D:\Users\IIIT\Desktop\Sevro_TM_button\Sevro_TM_button.c"
 161  0031              #pragma debug scope 1 1
 161  0031              public _Delay100us
"File: Sevro_TM_button.c  Assembler  Version HGASM0202      Page 9

 161  0031              #pragma debug scope 15 1
 164  0031              #line 164 "D:\Users\IIIT\Desktop\Sevro_TM_button\Sevro_TM_button.c"
 164  0000              _Delay100us .section 'code'
 164  0000              _Delay100us proc
 164  0000              public _Delay100us_2
 164  0000  0002[           local _Delay100us_2 db 2 dup(?)	; 2,0
            00
            ]
 164  0002              #pragma debug variable 10 15 _Delay100us_2+0 "del"
 166  0002              #line 166 "D:\Users\IIIT\Desktop\Sevro_TM_button\Sevro_TM_button.c"
 166  0000  1F00     E  	clr rb
 166  0001  1F00     E  	clr rc
 166  0002              _L19:
 166  0002              #line 166 "D:\Users\IIIT\Desktop\Sevro_TM_button\Sevro_TM_button.c"
 166  0002  0700     E  	mov a,rb
 166  0003  0200     R  	sub a,_Delay100us_2[0]
 166  0004  0700     E  	mov a,rc
 166  0005  1200     R  	sbc a,_Delay100us_2[1]
 166  0006  3F0A        	sz cz
 166  0007  2800     R  	jmp _L18
 166  0008  1F00     E  	clr ra
 166  0009              _L22:
 168  0009              #line 168 "D:\Users\IIIT\Desktop\Sevro_TM_button\Sevro_TM_button.c"
 168  0009              ;# 168 "D:\Users\IIIT\Desktop\Sevro_TM_button\Sevro_TM_button.c" 1
 168  0009  0000        	nop
 168  000A  1480     E  	inc ra
 167  000B              #line 167 "D:\Users\IIIT\Desktop\Sevro_TM_button\Sevro_TM_button.c"
 167  000B  0700     E  	mov a,ra
 167  000C  0A1A        	sub a,26
 167  000D  390A        	snz z
 167  000E  2800     R  	jmp _L22
 166  000F              #line 166 "D:\Users\IIIT\Desktop\Sevro_TM_button\Sevro_TM_button.c"
 166  000F  1480     E  	inc rb
 166  0010  3D0A        	sz z
 166  0011  1480     E  	inc rc
 166  0012  2800     R  	jmp _L19
 166  0013              _L18:
 166  0013  0003        	ret
 166  0014              _Delay100us endp
 166  0014              #line 166 "D:\Users\IIIT\Desktop\Sevro_TM_button\Sevro_TM_button.c"
 166  0014              #pragma debug scope 1 1
 166  0014              public _delay_ms
 166  0014              #pragma debug scope 16 1
 171  0014              #line 171 "D:\Users\IIIT\Desktop\Sevro_TM_button\Sevro_TM_button.c"
 171  0000              _delay_ms .section 'code'
 171  0000              _delay_ms proc
 171  0000  00              local _delay_ms_2 db 1 dup(?)	; 0,1
 171  0000  0080     R  	mov _delay_ms_2[0],a
 171  0001              #pragma debug variable 8 16 _delay_ms_2+0 "del"
 173  0001              #line 173 "D:\Users\IIIT\Desktop\Sevro_TM_button\Sevro_TM_button.c"
 173  0001  1F00     E  	clr ra
 173  0002  2800     R  	jmp _L24
 173  0003              _L25:
 174  0003              #line 174 "D:\Users\IIIT\Desktop\Sevro_TM_button\Sevro_TM_button.c"
 174  0003              ;# 174 "D:\Users\IIIT\Desktop\Sevro_TM_button\Sevro_TM_button.c" 1
 174  0003              	IF 2000>263690
 174  0003              ;# 174 "D:\Users\IIIT\Desktop\Sevro_TM_button\Sevro_TM_button.c" 1
 174  0003              	ERRMESSAGE 'the value 2000of the argument exceeds the maxinum 263690'
 174  0003              	ENDIF
 174  0003              ;# 174 "D:\Users\IIIT\Desktop\Sevro_TM_button\Sevro_TM_button.c" 1
"File: Sevro_TM_button.c  Assembler  Version HGASM0202      Page 10

 174  0003              	IF 2000<0
 174  0003              ;# 174 "D:\Users\IIIT\Desktop\Sevro_TM_button\Sevro_TM_button.c" 1
 174  0003              	ERRMESSAGE 'the value 2000 of the argument exceeds the mininum 0'
 174  0003              	ENDIF
 174  0003              ;# 174 "D:\Users\IIIT\Desktop\Sevro_TM_button\Sevro_TM_button.c" 1
 174  0003              	IF 2000==0
 174  0003              ;# 174 "D:\Users\IIIT\Desktop\Sevro_TM_button\Sevro_TM_button.c" 1
 174  0003              	JMP $
 174  0003              	ENDIF
 174  0003              ;# 174 "D:\Users\IIIT\Desktop\Sevro_TM_button\Sevro_TM_button.c" 1
 174  0003              	IF (2000>=1) AND (2000<( 4 + __PBP__ * 2))
 174  0003              ;# 174 "D:\Users\IIIT\Desktop\Sevro_TM_button\Sevro_TM_button.c" 1
 174  0003              	NOP
 174  0003              	ENDIF
 174  0003              ;# 174 "D:\Users\IIIT\Desktop\Sevro_TM_button\Sevro_TM_button.c" 1
 174  0003              	IF (2000>=2) AND (2000<( 4 + __PBP__ * 2))
 174  0003              ;# 174 "D:\Users\IIIT\Desktop\Sevro_TM_button\Sevro_TM_button.c" 1
 174  0003              	NOP
 174  0003              	ENDIF
 174  0003              ;# 174 "D:\Users\IIIT\Desktop\Sevro_TM_button\Sevro_TM_button.c" 1
 174  0003              	IF (2000>=3) AND (2000<( 4 + __PBP__ * 2))
 174  0003              ;# 174 "D:\Users\IIIT\Desktop\Sevro_TM_button\Sevro_TM_button.c" 1
 174  0003              	NOP
 174  0003              	ENDIF
 174  0003              ;# 174 "D:\Users\IIIT\Desktop\Sevro_TM_button\Sevro_TM_button.c" 1
 174  0003              	IF (2000>=4) AND (2000<( 4 + __PBP__ * 2)) AND ( __PBP__ > 0 )
 174  0003              ;# 174 "D:\Users\IIIT\Desktop\Sevro_TM_button\Sevro_TM_button.c" 1
 174  0003              	NOP
 174  0003              	ENDIF
 174  0003              ;# 174 "D:\Users\IIIT\Desktop\Sevro_TM_button\Sevro_TM_button.c" 1
 174  0003              	IF (2000>=5) AND (2000<( 4 + __PBP__ * 2)) AND ( __PBP__ > 0 )
 174  0003              ;# 174 "D:\Users\IIIT\Desktop\Sevro_TM_button\Sevro_TM_button.c" 1
 174  0003              	NOP
 174  0003              	ENDIF
 174  0003              ;# 174 "D:\Users\IIIT\Desktop\Sevro_TM_button\Sevro_TM_button.c" 1
 174  0003              	IF (2000>=6) AND (2000<( 4 + __PBP__ * 2))  AND ( __PBP__ > 1 )
 174  0003              ;# 174 "D:\Users\IIIT\Desktop\Sevro_TM_button\Sevro_TM_button.c" 1
 174  0003              	NOP
 174  0003              	ENDIF
 174  0003              ;# 174 "D:\Users\IIIT\Desktop\Sevro_TM_button\Sevro_TM_button.c" 1
 174  0003              	IF (2000>=7) AND (2000<( 4 + __PBP__ * 2))  AND ( __PBP__ > 1 )
 174  0003              ;# 174 "D:\Users\IIIT\Desktop\Sevro_TM_button\Sevro_TM_button.c" 1
 174  0003              	NOP
 174  0003              	ENDIF
 174  0003              ;# 174 "D:\Users\IIIT\Desktop\Sevro_TM_button\Sevro_TM_button.c" 1
 174  0003              	IF (2000>=8) AND (2000<( 4 + __PBP__ * 2))  AND ( __PBP__ > 2 )
 174  0003              ;# 174 "D:\Users\IIIT\Desktop\Sevro_TM_button\Sevro_TM_button.c" 1
 174  0003              	NOP
 174  0003              	ENDIF
 174  0003              ;# 174 "D:\Users\IIIT\Desktop\Sevro_TM_button\Sevro_TM_button.c" 1
 174  0003              	IF (2000==9)  AND ( __PBP__ > 2 )
 174  0003              ;# 174 "D:\Users\IIIT\Desktop\Sevro_TM_button\Sevro_TM_button.c" 1
 174  0003              	NOP
 174  0003              	ENDIF
 174  0003              ;# 174 "D:\Users\IIIT\Desktop\Sevro_TM_button\Sevro_TM_button.c" 1
 174  0003              	IF (2000< ( 8 + __PBP__ * 2)) AND (2000>( 3 + __PBP__ * 2))
 174  0003              ;# 174 "D:\Users\IIIT\Desktop\Sevro_TM_button\Sevro_TM_button.c" 1
 174  0003              	fcall __DELAY3 + ( 7 + __PBP__ * 2) -2000
 174  0003              	ENDIF
 174  0003              ;# 174 "D:\Users\IIIT\Desktop\Sevro_TM_button\Sevro_TM_button.c" 1
"File: Sevro_TM_button.c  Assembler  Version HGASM0202      Page 11

 174  0003              	IF (2000< ( 0404h + __PBP__ * 2)) AND (2000>( 7 + __PBP__ * 2))
 174  0003              ;# 174 "D:\Users\IIIT\Desktop\Sevro_TM_button\Sevro_TM_button.c" 1
 174  0003              	MOV A,(2000-( 4 + __PBP__ * 2))/4
 174  0003              ;# 174 "D:\Users\IIIT\Desktop\Sevro_TM_button\Sevro_TM_button.c" 1
 174  0003              	fcall __DELAYX3 + 3 -((2000-( 4 + __PBP__ * 2)) MOD 4) 
 174  0003              	ENDIF
 174  0003              ;# 174 "D:\Users\IIIT\Desktop\Sevro_TM_button\Sevro_TM_button.c" 1
 174  0003              	IF (2000< ( 040bh + __PBP__ * 2)) AND (2000> ( 0403h + __PBP__ * 2))
 174  0003              ;# 174 "D:\Users\IIIT\Desktop\Sevro_TM_button\Sevro_TM_button.c" 1
 174  0003              	MOV A,0 
 174  0003              ;# 174 "D:\Users\IIIT\Desktop\Sevro_TM_button\Sevro_TM_button.c" 1
 174  0003              	fcall __DELAYX6 + ( 040ah + __PBP__ * 2) -2000
 174  0003              	ENDIF
 174  0003              ;# 174 "D:\Users\IIIT\Desktop\Sevro_TM_button\Sevro_TM_button.c" 1
 174  0003              	IF (2000 >= ( 040bh + __PBP__ * 2)) AND ((((2000-( 9 + __PBP__ * 2))%0402h)/4+1)>256)
 174  0003              ;# 174 "D:\Users\IIIT\Desktop\Sevro_TM_button\Sevro_TM_button.c" 1
 174  0003              	MOV A,(2000-( 9 + __PBP__ * 2))/0402h
 174  0003              ;# 174 "D:\Users\IIIT\Desktop\Sevro_TM_button\Sevro_TM_button.c" 1
 174  0003              	MOV _builtin_holtek_delay_2,A
 174  0003              ;# 174 "D:\Users\IIIT\Desktop\Sevro_TM_button\Sevro_TM_button.c" 1
 174  0003              	MOV A,0
 174  0003              ;# 174 "D:\Users\IIIT\Desktop\Sevro_TM_button\Sevro_TM_button.c" 1
 174  0003              	fcall __DELAYY5 +5- (((2000-( 9 + __PBP__ * 2))%0402h)%6) 
 174  0003              	ENDIF
 174  0003              ;# 174 "D:\Users\IIIT\Desktop\Sevro_TM_button\Sevro_TM_button.c" 1
 174  0003              	IF (2000 >= ( 040bh + __PBP__ * 2)) AND ((((2000-( 9 + __PBP__ * 2))%0402h)/4+1)<=256)
 174  0003              ;# 174 "D:\Users\IIIT\Desktop\Sevro_TM_button\Sevro_TM_button.c" 1
 174  0003  0F01        	MOV A,(2000-( 9 + __PBP__ * 2))/0402h
 174  0004              ;# 174 "D:\Users\IIIT\Desktop\Sevro_TM_button\Sevro_TM_button.c" 1
 174  0004  0080     E  	MOV _builtin_holtek_delay_2,A
 174  0005              ;# 174 "D:\Users\IIIT\Desktop\Sevro_TM_button\Sevro_TM_button.c" 1
 174  0005  0FF1        	MOV A,((2000-( 9 + __PBP__ * 2))%0402h)/4+1
 174  0006              ;# 174 "D:\Users\IIIT\Desktop\Sevro_TM_button\Sevro_TM_button.c" 1
 174  0006              	fcall __DELAYY3 +3-(((2000-( 9 + __PBP__ * 2))%0402h)%4) 
 174  000D              	ENDIF
 173  000D              #line 173 "D:\Users\IIIT\Desktop\Sevro_TM_button\Sevro_TM_button.c"
 173  000D  1480     E  	inc ra
 173  000E              _L24:
 173  000E  0700     E  	mov a,ra
 173  000F  0200     R  	sub a,_delay_ms_2[0]
 173  0010  390A        	snz z
 173  0011  2800     R  	jmp _L25
 173  0012  0003        	ret
 173  0013              _delay_ms endp
 173  0013              #line 173 "D:\Users\IIIT\Desktop\Sevro_TM_button\Sevro_TM_button.c"
 173  0013              #pragma debug scope 1 1
 173  0013              ___wdtc equ [62]
 173  0013              ___pbc equ [23]
 173  0013              ___pgc equ [43]
 173  0013              ___pe equ [34]
 173  0013              public _main
 173  0013              #pragma debug scope 17 1
  52  0013              #line 52 "D:\Users\IIIT\Desktop\Sevro_TM_button\Sevro_TM_button.c"
  52  0013              IFDEF WITH_DEFAULT_STARTUP
  52  0013              extern _main_initial0:near
  52  0013              extern _main_startup:near
  52  0013              ENDIF
  52  0013              
  52  0013              ROMBANK 0 @start
  52  0000              @start .section com_l 'code'
"File: Sevro_TM_button.c  Assembler  Version HGASM0202      Page 12

  52  0000              _main_startup1:
  52  0000              @start .section com_e 'code'
  52  0000  0F00     R  	mov a,bank _main
  52  0001  008B        	mov bp,a
  52  0002  2800     R  	jmp _main
  52  0003              
  52  0000              _main .section 'code'
  52  0000              _main proc
  53  0000              #line 53 "D:\Users\IIIT\Desktop\Sevro_TM_button\Sevro_TM_button.c"
  53  0000  0FAB        	mov a,171
  53  0001  00BE        	mov [62],a
  54  0002              #line 54 "D:\Users\IIIT\Desktop\Sevro_TM_button\Sevro_TM_button.c"
  54  0002  3717        	clr [23].6
  54  0003  3797        	clr [23].7
  55  0004              #line 55 "D:\Users\IIIT\Desktop\Sevro_TM_button\Sevro_TM_button.c"
  55  0004              	fcall _UART_INIT
  56  000B              #line 56 "D:\Users\IIIT\Desktop\Sevro_TM_button\Sevro_TM_button.c"
  56  000B  1F2B        	clr [43]
  57  000C              #line 57 "D:\Users\IIIT\Desktop\Sevro_TM_button\Sevro_TM_button.c"
  57  000C              	fcall _TM_Set
  58  0013              #line 58 "D:\Users\IIIT\Desktop\Sevro_TM_button\Sevro_TM_button.c"
  58  0013              	fcall _Interrupt_Set
  59  001A              #line 59 "D:\Users\IIIT\Desktop\Sevro_TM_button\Sevro_TM_button.c"
  59  001A              	fcall _Moto_Set
  60  0021              #line 60 "D:\Users\IIIT\Desktop\Sevro_TM_button\Sevro_TM_button.c"
  60  0021              	fcall _AD_Set
  61  0028              #line 61 "D:\Users\IIIT\Desktop\Sevro_TM_button\Sevro_TM_button.c"
  61  0028  3030        	set [48].0
  62  0029              #line 62 "D:\Users\IIIT\Desktop\Sevro_TM_button\Sevro_TM_button.c"
  62  0029  0F6B        	mov a,107
  62  002A              	fcall _Moto_C
  63  0031              #line 63 "D:\Users\IIIT\Desktop\Sevro_TM_button\Sevro_TM_button.c"
  63  0031  0F01        	mov a,1
  63  0032  0080     R  	mov _auto1[0],a
  63  0033  1F00     R  	clr _auto1[1]
  64  0034              #line 64 "D:\Users\IIIT\Desktop\Sevro_TM_button\Sevro_TM_button.c"
  64  0034  0F55        	mov a,85
  64  0035  0080     R  	mov _Head[0],a
  64  0036  1F00     R  	clr _Head[1]
  64  0037              _L30:
  67  0037              #line 67 "D:\Users\IIIT\Desktop\Sevro_TM_button\Sevro_TM_button.c"
  67  0037  0F00     R  	mov a,low offset _Head
  67  0038  0080     E  	mov _Send_2[0],a
  67  0039  0F00     R  	mov a,high offset _Head
  67  003A  0080     E  	mov _Send_2[1],a
  67  003B              	fcall _Send
  68  0042              #line 68 "D:\Users\IIIT\Desktop\Sevro_TM_button\Sevro_TM_button.c"
  68  0042  0700     R  	mov a,_l[0]
  68  0043  0080     E  	mov _Send_2[0],a
  68  0044  0700     R  	mov a,_l[1]
  68  0045  0080     E  	mov _Send_2[1],a
  68  0046              	fcall _Send
  69  004D              #line 69 "D:\Users\IIIT\Desktop\Sevro_TM_button\Sevro_TM_button.c"
  69  004D  0700     R  	mov a,_auto1[0]
  69  004E  0500     R  	or a,_auto1[1]
  69  004F  390A        	snz z
  69  0050  2800     R  	jmp _L27
  70  0051              #line 70 "D:\Users\IIIT\Desktop\Sevro_TM_button\Sevro_TM_button.c"
  70  0051  0F6B        	mov a,107
  70  0052              	fcall _Moto_C
"File: Sevro_TM_button.c  Assembler  Version HGASM0202      Page 13

  71  0059              #line 71 "D:\Users\IIIT\Desktop\Sevro_TM_button\Sevro_TM_button.c"
  71  0059  0F64        	mov a,100
  71  005A              	fcall _delay_ms
  72  0061              #line 72 "D:\Users\IIIT\Desktop\Sevro_TM_button\Sevro_TM_button.c"
  72  0061  0F87        	mov a,135
  72  0062              	fcall _Moto_C
  73  0069              #line 73 "D:\Users\IIIT\Desktop\Sevro_TM_button\Sevro_TM_button.c"
  73  0069  0F64        	mov a,100
  73  006A              	fcall _delay_ms
  73  0071              _L27:
  75  0071              #line 75 "D:\Users\IIIT\Desktop\Sevro_TM_button\Sevro_TM_button.c"
  75  0071  3C22        	sz [34].0
  75  0072  2800     R  	jmp _L28
  76  0073              #line 76 "D:\Users\IIIT\Desktop\Sevro_TM_button\Sevro_TM_button.c"
  76  0073  0F01        	mov a,1
  76  0074  0080     R  	mov _auto1[0],a
  76  0075  1F00     R  	clr _auto1[1]
  77  0076              #line 77 "D:\Users\IIIT\Desktop\Sevro_TM_button\Sevro_TM_button.c"
  77  0076  0F6B        	mov a,107
  77  0077              	fcall _Moto_C
  77  007E              _L28:
  79  007E              #line 79 "D:\Users\IIIT\Desktop\Sevro_TM_button\Sevro_TM_button.c"
  79  007E  3CA2        	sz [34].1
  79  007F  2800     R  	jmp _L30
  80  0080              #line 80 "D:\Users\IIIT\Desktop\Sevro_TM_button\Sevro_TM_button.c"
  80  0080  1F00     R  	clr _auto1[0]
  80  0081  1F00     R  	clr _auto1[1]
  80  0082  2800     R  	jmp _L30
  80  0083  2800     R  	jmp $
  80  0084              _main endp
  80  0084              
  80  0084              @dummy endp
  80  0084              
  80  0084              #line 80 "D:\Users\IIIT\Desktop\Sevro_TM_button\Sevro_TM_button.c"
  80  0084              #pragma debug scope 1 1
  80  0084              public _delay1s
  80  0084              #pragma debug scope 18 1
 178  0084              #line 178 "D:\Users\IIIT\Desktop\Sevro_TM_button\Sevro_TM_button.c"
 178  0000              _delay1s .section 'code'
 178  0000              _delay1s proc
 178  0000  0003        	ret
 178  0001              _delay1s endp
 178  0001              #line 178 "D:\Users\IIIT\Desktop\Sevro_TM_button\Sevro_TM_button.c"
 178  0001              #pragma debug scope 1 1
  39  0001              #line 39 "D:\Users\IIIT\Desktop\Sevro_TM_button\Sevro_TM_button.c"
  39  0001              public _auto1
  39  0000              @HCCINIT0_auto1 .section 'data'
  39  0000  0002[       _auto1	db 2 dup(0)
            00
            ]
  39  0002              #pragma debug variable 9 1 _auto1 "auto1"
  39  0002              
  39  0000              @HCCINIT .section 'data'
  39  0000              #line 39 "D:\Users\IIIT\Desktop\Sevro_TM_button\Sevro_TM_button.c"
  39  0000              public _Index
  39  0000              @HCCINIT0_Index .section 'data'
  39  0000  0002[       _Index	db 2 dup(0)
            00
            ]
  39  0002              #pragma debug variable 9 1 _Index "Index"
"File: Sevro_TM_button.c  Assembler  Version HGASM0202      Page 14

  39  0002              
  39  0000              @HCCINIT .section 'data'
  39  0000              #line 39 "D:\Users\IIIT\Desktop\Sevro_TM_button\Sevro_TM_button.c"
  39  0000              public _temp
  39  0000              @HCCINIT0_temp .section 'data'
  39  0000  0002[       _temp	db 2 dup(0)
            00
            ]
  39  0002              #pragma debug variable 9 1 _temp "temp"
  39  0002              
  39  0000              @HCCINIT .section 'data'
  38  0000              #line 38 "D:\Users\IIIT\Desktop\Sevro_TM_button\Sevro_TM_button.c"
  38  0000              public _AD50ms
  38  0000              @HCCINIT0_AD50ms .section 'data'
  38  0000              _AD50ms	db 0
  38  0001              #pragma debug variable 8 1 _AD50ms "AD50ms"
  38  0001              
  38  0000              @HCCINIT .section 'data'
  38  0000              #line 38 "D:\Users\IIIT\Desktop\Sevro_TM_button\Sevro_TM_button.c"
  38  0000              public _R1sec
  38  0000              @HCCINIT0_R1sec .section 'data'
  38  0000              _R1sec	db 0
  38  0001              #pragma debug variable 8 1 _R1sec "R1sec"
  38  0001              
  38  0000              @HCCINIT .section 'data'
  38  0000              #line 38 "D:\Users\IIIT\Desktop\Sevro_TM_button\Sevro_TM_button.c"
  38  0000              public _SEC
  38  0000              @HCCINIT0_SEC .section 'data'
  38  0000              _SEC	db 0
  38  0001              #pragma debug variable 8 1 _SEC "SEC"
  38  0001              
  38  0000              @HCCINIT .section 'data'
  16  0000              #line 16 "D:\Users\IIIT\Desktop\Sevro_TM_button\Sevro_TM_button.c"
  16  0000              public _l
  16  0000              @HCCINIT0_l .section 'data'
  16  0000  0002[       _l	db 2 dup(0)
            00
            ]
  16  0002              #pragma debug pointer 42 7 1
  16  0002              #pragma debug pointer 42 7 1
  16  0002              #pragma debug variable 42 1 _l "l"
  16  0002              
  16  0000              @HCCINIT .section 'data'
  14  0000              #line 14 "D:\Users\IIIT\Desktop\Sevro_TM_button\Sevro_TM_button.c"
  14  0000              public _Head
  14  0000              @HCCINIT0_Head .section 'data'
  14  0000  0002[       _Head	db 2 dup(0)
            00
            ]
  14  0002              #pragma debug variable 42 1 _Head "Head"
  14  0002              
  14  0000              @HCCINIT .section 'data'
  14  0000              public _AxisX
  14  0000              @crom	.section 'crom'
  14  0000              _LC0:
  14  0000              	db 00h
  14  0000              @HCCINIT	.section 'data'
  13  0000              #line 13 "D:\Users\IIIT\Desktop\Sevro_TM_button\Sevro_TM_button.c"
  13  0000              @HCCINIT_AxisX .section 'data'
  13  0000              _AxisX label byte
"File: Sevro_TM_button.c  Assembler  Version HGASM0202      Page 15

  13  0000              #pragma debug variable 42 1 _AxisX "AxisX"
  13  0000              	dw offset _LC0
  13  0000              @ROMDATA_BASE .section inpage 'code'
  13  0000  0000     R  	dc offset _LC0
  13  0002              @HCCINIT_AxisX .section 'data'
  13  0002              #pragma debug struct_end
  13  0002              #pragma debug struct_end
  13  0002              #pragma debug union_end
  13  0002              #pragma debug union_end
  13  0002              #pragma debug variable 44 1 ___papu "__papu" 1
  13  0002              #pragma debug struct_end
  13  0002              #pragma debug struct_end
  13  0002              #pragma debug union_end
  13  0002              #pragma debug union_end
  13  0002              #pragma debug variable 46 1 ___pac "__pac" 1
  13  0002              #pragma debug struct_end
  13  0002              #pragma debug struct_end
  13  0002              #pragma debug union_end
  13  0002              #pragma debug union_end
  13  0002              #pragma debug variable 48 1 ___pb "__pb" 1
  13  0002              #pragma debug struct_end
  13  0002              #pragma debug struct_end
  13  0002              #pragma debug union_end
  13  0002              #pragma debug union_end
  13  0002              #pragma debug variable 50 1 ___pbc "__pbc" 1
  13  0002              #pragma debug struct_end
  13  0002              #pragma debug struct_end
  13  0002              #pragma debug union_end
  13  0002              #pragma debug union_end
  13  0002              #pragma debug variable 52 1 ___pepu "__pepu" 1
  13  0002              #pragma debug struct_end
  13  0002              #pragma debug struct_end
  13  0002              #pragma debug union_end
  13  0002              #pragma debug union_end
  13  0002              #pragma debug variable 54 1 ___pe "__pe" 1
  13  0002              #pragma debug struct_end
  13  0002              #pragma debug struct_end
  13  0002              #pragma debug union_end
  13  0002              #pragma debug union_end
  13  0002              #pragma debug variable 56 1 ___pec "__pec" 1
  13  0002              #pragma debug struct_end
  13  0002              #pragma debug struct_end
  13  0002              #pragma debug union_end
  13  0002              #pragma debug union_end
  13  0002              #pragma debug variable 58 1 ___pg "__pg" 1
  13  0002              #pragma debug struct_end
  13  0002              #pragma debug struct_end
  13  0002              #pragma debug union_end
  13  0002              #pragma debug union_end
  13  0002              #pragma debug variable 60 1 ___pgc "__pgc" 1
  13  0002              #pragma debug struct_end
  13  0002              #pragma debug struct_end
  13  0002              #pragma debug union_end
  13  0002              #pragma debug union_end
  13  0002              #pragma debug variable 62 1 ___intc0 "__intc0" 1
  13  0002              #pragma debug struct_end
  13  0002              #pragma debug struct_end
  13  0002              #pragma debug union_end
  13  0002              #pragma debug union_end
  13  0002              #pragma debug variable 64 1 ___intc3 "__intc3" 1
"File: Sevro_TM_button.c  Assembler  Version HGASM0202      Page 16

  13  0002              #pragma debug struct_end
  13  0002              #pragma debug struct_end
  13  0002              #pragma debug union_end
  13  0002              #pragma debug union_end
  13  0002              #pragma debug variable 66 1 ___mfi0 "__mfi0" 1
  13  0002              #pragma debug struct_end
  13  0002              #pragma debug struct_end
  13  0002              #pragma debug union_end
  13  0002              #pragma debug union_end
  13  0002              #pragma debug variable 68 1 ___mfi4 "__mfi4" 1
  13  0002              #pragma debug struct_end
  13  0002              #pragma debug struct_end
  13  0002              #pragma debug union_end
  13  0002              #pragma debug union_end
  13  0002              #pragma debug variable 70 1 ___integ "__integ" 1
  13  0002              #pragma debug struct_end
  13  0002              #pragma debug struct_end
  13  0002              #pragma debug union_end
  13  0002              #pragma debug union_end
  13  0002              #pragma debug variable 72 1 ___wdtc "__wdtc" 1
  13  0002              #pragma debug struct_end
  13  0002              #pragma debug struct_end
  13  0002              #pragma debug union_end
  13  0002              #pragma debug union_end
  13  0002              #pragma debug variable 74 1 ___tm2c0 "__tm2c0" 1
  13  0002              #pragma debug struct_end
  13  0002              #pragma debug struct_end
  13  0002              #pragma debug union_end
  13  0002              #pragma debug union_end
  13  0002              #pragma debug variable 76 1 ___tm2c1 "__tm2c1" 1
  13  0002              #pragma debug variable 8 1 ___tm2al "__tm2al" 1
  13  0002              #pragma debug variable 8 1 ___tm2ah "__tm2ah" 1
  13  0002              #pragma debug variable 8 1 ___tm2rp "__tm2rp" 1
  13  0002              #pragma debug struct_end
  13  0002              #pragma debug struct_end
  13  0002              #pragma debug union_end
  13  0002              #pragma debug union_end
  13  0002              #pragma debug variable 78 1 ___adcr0 "__adcr0" 1
  13  0002              #pragma debug struct_end
  13  0002              #pragma debug struct_end
  13  0002              #pragma debug union_end
  13  0002              #pragma debug union_end
  13  0002              #pragma debug variable 80 1 ___adcr1 "__adcr1" 1
  13  0002              #pragma debug variable 8 1 ___adrh "__adrh" 1
  13  0002              #pragma debug struct_end
  13  0002              #pragma debug struct_end
  13  0002              #pragma debug union_end
  13  0002              #pragma debug union_end
  13  0002              #pragma debug variable 82 1 ___ifs0 "__ifs0" 1
  13  0002              #pragma debug struct_end
  13  0002              #pragma debug struct_end
  13  0002              #pragma debug union_end
  13  0002              #pragma debug union_end
  13  0002              #pragma debug variable 84 1 ___ifs1 "__ifs1" 1
  13  0002              #pragma debug struct_end
  13  0002              #pragma debug struct_end
  13  0002              #pragma debug union_end
  13  0002              #pragma debug union_end
  13  0002              #pragma debug variable 86 1 ___tm4c0 "__tm4c0" 1
  13  0002              #pragma debug struct_end
"File: Sevro_TM_button.c  Assembler  Version HGASM0202      Page 17

  13  0002              #pragma debug struct_end
  13  0002              #pragma debug union_end
  13  0002              #pragma debug union_end
  13  0002              #pragma debug variable 88 1 ___tm4c1 "__tm4c1" 1
  13  0002              #pragma debug variable 8 1 ___tm4al "__tm4al" 1
  13  0002              #pragma debug variable 8 1 ___tm4ah "__tm4ah" 1
  13  0002              #pragma debug struct_end
  13  0002              #pragma debug struct_end
  13  0002              #pragma debug union_end
  13  0002              #pragma debug union_end
  13  0002              #pragma debug variable 90 1 ___pas0 "__pas0" 1
  13  0002              #pragma debug struct_end
  13  0002              #pragma debug struct_end
  13  0002              #pragma debug union_end
  13  0002              #pragma debug union_end
  13  0002              #pragma debug variable 92 1 ___pas3 "__pas3" 1
  13  0002              #pragma debug struct_end
  13  0002              #pragma debug struct_end
  13  0002              #pragma debug union_end
  13  0002              #pragma debug union_end
  13  0002              #pragma debug variable 94 1 ___pds2 "__pds2" 1
  13  0002              
  13  0002              ; output external variables
  13  0002              extern _flag:byte
  13  0002              extern r1:byte
  13  0002              extern r2:byte
  13  0002              extern r3:byte
  52  0002              #line 52 "D:\Users\IIIT\Desktop\Sevro_TM_button\Sevro_TM_button.c"
  52  0000              @code .section at 0 'code'
  52  0000  1F0B        	clr bp
  52  0001  2800     R  	jmp _main_startup1
  52  0002              
  52  0002              extern _builtin_holtek_mulhi3_2:byte
  52  0002              extern _builtin_holtek_mulhi3:near
  52  0002              extern _UART_INIT:near
  52  0002              extern _Send_2:byte
  52  0002              extern _Send:near
  52  0002              
  52  0002              ; 
  52  0002              ; Generated by holtek-gcc v3.18, Mon Nov 05 14:17:03 2018
  52  0002              ; Rebuild 521
  52  0002              ; end of file


        0 Errors, 0