"File: Sevro_TM_button.c  Assembler  Version HGASM0202      Page 1


   1  0000              ; Generated by holtek-gcc v3.18, Tue Nov 13 00:25:42 2018
   2  0000              ; 
   3  0000              ; Configuration:
   4  0000              ;       with long instruction
   5  0000              ;       Multi-ROM, Multi-RAM
   6  0000              ;       bits_per_rom_unit:16
   7  0000              ;       with mp1
   8  0000              ;       with tbhp, address(0x9)
   9  0000              ;          Use tabrd-const
  10  0000              ;       
  11  0000              ; SFR address of long-instruction arch:
  12  0000              ;    mp0 = -1,1,0
  13  0000              ;    mp1 = 4,3,2
  14  0000              ;    mp2 = 14,13,12
  15  0000              ;    tbp = 9,7,8
  16  0000              ;    acc = 5
  17  0000              ;    pcl = 6
  18  0000              ;    status = 10
  19  0000              ;    bp = 11
  20  0000              ;    intc = 48
  21  0000              ;       
  22  0000              ;       
  23  0000              ; use 'tabrdc' instead of 'tabrd'
  24  0000              ;       
  25  0000              
  26  0000              #pragma translator "holtek-gcc 4.6.4" "3.18" "build 20130711"
  27  0000              ; Rebuild 521
  28  0000              
  29  0000              ir equ [2]
  30  0000              mp equ [3]
  31  0000              sbp equ [4]
  32  0000              acc equ [5]
  33  0000              bp equ [11]
  34  0000              tblp equ [7]
  35  0000              tbhp equ [9]
  36  0000              status equ [10]
  37  0000              c equ [10].0
  38  0000              ac equ [10].1
  39  0000              z equ [10].2
  40  0000              ov equ [10].3
  41  0000              cz equ [10].6
  42  0000              sc equ [10].7
  43  0000              intc equ [48]
  44  0000              
  45  0000              extern ra:byte
  46  0000              extern rb:byte
  47  0000              extern rc:byte
  48  0000              extern rd:byte
  49  0000              extern re:byte
  50  0000              extern rf:byte
  51  0000              extern rg:byte
  52  0000              extern rh:byte
  53  0000              extern _Crom2Prom:near
  54  0000              extern _Crom2PromNext:near
  55  0000              
  56  0000              RAMBANK 0 @BITDATASEC, @BITDATASEC1
  57  0000              @HCCINIT	.section 'data'
  58  0000              @HCCINIT0	.section 'data'
  59  0000              @BITDATASEC	 .section 'data'
"File: Sevro_TM_button.ASM  Assembler  Version HGASM0202      Page 2

  60  0000              @BITDATASEC1	 .section 'data'
  61  0000              
  62  0000              #pragma debug scope 1 1
  63  0000              	extern __DELAY3:near
  64  0000              	extern __DELAYX3:near
  65  0000              	extern __DELAYX6:near
  66  0000              	extern __DELAYY5:near
  67  0000              	extern __DELAYY3:near
  68  0000              	extern _builtin_holtek_delay_2:byte
  69  0000              ___tm4c0 equ [336]
  70  0000              ___tm4c1 equ [337]
  71  0000              ___tm4al equ [340]
  72  0000              ___tm4ah equ [341]
  73  0000              ___tm0c0 equ [94]
  74  0000              ___tm0c1 equ [95]
  75  0000              ___tm2c0 equ [81]
  76  0000              ___tm2c1 equ [82]
  77  0000              ___intc3 equ [51]
  78  0000              ___mfi4 equ [56]
  79  0000              public _TM_Set
  80  0000              #pragma debug scope 2 1

 113  0000              #line 113 "D:\Users\IIIT\Desktop\DATATRAN\Sevro_TM_button.c"
 113  0000              _TM_Set .section 'code'
 113  0000              _TM_Set proc
 114  0000              #line 114 "D:\Users\IIIT\Desktop\DATATRAN\Sevro_TM_button.c"
 114  0000  0F20        	mov a,32
 114  0001  80D0 0001   	lmov [336],a
 115  0003              #line 115 "D:\Users\IIIT\Desktop\DATATRAN\Sevro_TM_button.c"
 115  0003  0FC1        	mov a,193
 115  0004  80D1 0001   	lmov [337],a
 116  0006              #line 116 "D:\Users\IIIT\Desktop\DATATRAN\Sevro_TM_button.c"
 116  0006  0F88        	mov a,136
 116  0007  80D4 0001   	lmov [340],a
 116  0009  0F13        	mov a,19
 116  000A  80D5 0001   	lmov [341],a
 117  000C              #line 117 "D:\Users\IIIT\Desktop\DATATRAN\Sevro_TM_button.c"
 117  000C  0F10        	mov a,16
 117  000D  00DE        	mov [94],a
 118  000E              #line 118 "D:\Users\IIIT\Desktop\DATATRAN\Sevro_TM_button.c"
 118  000E  0FC1        	mov a,193
 118  000F  00DF        	mov [95],a
 119  0010              #line 119 "D:\Users\IIIT\Desktop\DATATRAN\Sevro_TM_button.c"
 119  0010  1F51        	clr [81]
 119  0011  0F31        	mov a,49
 119  0012  00D2        	mov [82],a
 120  0013              #line 120 "D:\Users\IIIT\Desktop\DATATRAN\Sevro_TM_button.c"
 120  0013  3133        	set [51].2
 120  0014  30B8        	set [56].1
 121  0015              #line 121 "D:\Users\IIIT\Desktop\DATATRAN\Sevro_TM_button.c"
 121  0015  B1D0 0001   	lset [336].3
 122  0017              #line 122 "D:\Users\IIIT\Desktop\DATATRAN\Sevro_TM_button.c"
 122  0017  1F00     R  	clr _SEC[0]
 122  0018  0F64        	mov a,100
 122  0019  0080     R  	mov _R1sec[0],a
 122  001A  0F01        	mov a,1
 122  001B  0080     R  	mov _AD10ms[0],a
 122  001C  0F14        	mov a,20
 122  001D  0080     R  	mov _Hall200ms[0],a
 122  001E  0003        	ret
"File: Sevro_TM_button.c  Assembler  Version HGASM0202      Page 3

 122  001F              _TM_Set endp
 122  001F              #line 122 "D:\Users\IIIT\Desktop\DATATRAN\Sevro_TM_button.c"
 122  001F              #pragma debug scope 1 1
 122  001F              ___pac equ [19]
 122  001F              ___papu equ [17]
 122  001F              ___integ equ [57]
 122  001F              ___intc0 equ [48]
 122  001F              ___ifs0 equ [328]
 122  001F              public _Interrupt_Set
 122  001F              #pragma debug scope 3 1
 125  001F              #line 125 "D:\Users\IIIT\Desktop\DATATRAN\Sevro_TM_button.c"
 125  0000              _Interrupt_Set .section 'code'
 125  0000              _Interrupt_Set proc
 126  0000              #line 126 "D:\Users\IIIT\Desktop\DATATRAN\Sevro_TM_button.c"
 126  0000  3193        	set [19].3
 126  0001  3191        	set [17].3
 127  0002              #line 127 "D:\Users\IIIT\Desktop\DATATRAN\Sevro_TM_button.c"
 127  0002  3213        	set [19].4
 127  0003  3211        	set [17].4
 128  0004              #line 128 "D:\Users\IIIT\Desktop\DATATRAN\Sevro_TM_button.c"
 128  0004  0F02        	mov a,2
 128  0005  00B9        	mov [57],a
 129  0006              #line 129 "D:\Users\IIIT\Desktop\DATATRAN\Sevro_TM_button.c"
 129  0006  30B0        	set [48].1
 130  0007              #line 130 "D:\Users\IIIT\Desktop\DATATRAN\Sevro_TM_button.c"
 130  0007  9F48 0001   	lclr [328]
 130  0009  0003        	ret
 130  000A              _Interrupt_Set endp
 130  000A              #line 130 "D:\Users\IIIT\Desktop\DATATRAN\Sevro_TM_button.c"
 130  000A              #pragma debug scope 1 1
 130  000A              ___pec equ [35]
 130  000A              ___pepu equ [33]
 130  000A              ___pds2 equ [366]
 130  000A              ___tm2rp equ [87]
 130  000A              public _Moto_Set
 130  000A              #pragma debug scope 4 1
 135  000A              #line 135 "D:\Users\IIIT\Desktop\DATATRAN\Sevro_TM_button.c"
 135  0000              _Moto_Set .section 'code'
 135  0000              _Moto_Set proc
 136  0000              #line 136 "D:\Users\IIIT\Desktop\DATATRAN\Sevro_TM_button.c"
 136  0000  3023        	set [35].0
 136  0001  3021        	set [33].0
 137  0002              #line 137 "D:\Users\IIIT\Desktop\DATATRAN\Sevro_TM_button.c"
 137  0002  30A3        	set [35].1
 137  0003  30A1        	set [33].1
 138  0004              #line 138 "D:\Users\IIIT\Desktop\DATATRAN\Sevro_TM_button.c"
 138  0004  0F01        	mov a,1
 138  0005  80EE 0001   	lmov [366],a
 139  0007              #line 139 "D:\Users\IIIT\Desktop\DATATRAN\Sevro_TM_button.c"
 139  0007  1F51        	clr [81]
 140  0008              #line 140 "D:\Users\IIIT\Desktop\DATATRAN\Sevro_TM_button.c"
 140  0008  0FA8        	mov a,168
 140  0009  00D2        	mov [82],a
 141  000A              #line 141 "D:\Users\IIIT\Desktop\DATATRAN\Sevro_TM_button.c"
 141  000A  0FA0        	mov a,160
 141  000B  00D7        	mov [87],a
 142  000C              #line 142 "D:\Users\IIIT\Desktop\DATATRAN\Sevro_TM_button.c"
 142  000C  31D1        	set [81].3
 142  000D  0003        	ret
 142  000E              _Moto_Set endp
"File: Sevro_TM_button.c  Assembler  Version HGASM0202      Page 4

 142  000E              #line 142 "D:\Users\IIIT\Desktop\DATATRAN\Sevro_TM_button.c"
 142  000E              #pragma debug scope 1 1
 142  000E              ___tm2al equ [85]
 142  000E              ___tm2ah equ [86]
 142  000E              public _Moto_C
 142  000E              #pragma debug scope 5 1
 145  000E              #line 145 "D:\Users\IIIT\Desktop\DATATRAN\Sevro_TM_button.c"
 145  0000              _Moto_C .section 'code'
 145  0000              _Moto_C proc
 145  0000  00              local _Moto_C_2 db 1 dup(?)	; 0,1
 145  0000  0080     R  	mov _Moto_C_2[0],a
 145  0001              #pragma debug variable 8 5 _Moto_C_2+0 "angle"
 146  0001              #line 146 "D:\Users\IIIT\Desktop\DATATRAN\Sevro_TM_button.c"
 146  0001  0700     R  	mov a,_Index[0]  
 146  0002  0080     E  	mov _builtin_holtek_mulhi3_2[0],a  
 146  0003  0700     R  	mov a,_Index[1]  
 146  0004  0080     E  	mov _builtin_holtek_mulhi3_2[1],a
 146  0005  0F14        	mov a,20  
 146  0006  0080     E  	mov _builtin_holtek_mulhi3_2[2],a  
 146  0007  1F00     E  	clr _builtin_holtek_mulhi3_2[3]
 146  0008              	fcall _builtin_holtek_mulhi3
 146  000F  0700     E  	mov a,_builtin_holtek_mulhi3_2[4]  
 146  0010  0080     E  	mov rd,a  
 146  0011  0700     E  	mov a,_builtin_holtek_mulhi3_2[5]  
 146  0012  0080     E  	mov re,a
 146  0013  0FE8        	mov a,232
 146  0014  0380     E  	addm a,rd
 146  0015  0F03        	mov a,3
 146  0016  1380     E  	adcm a,re
 147  0017              #line 147 "D:\Users\IIIT\Desktop\DATATRAN\Sevro_TM_button.c"
 147  0017  0700     E  	mov a,rd
 147  0018  0080     E  	mov rb,a
 147  0019  0700     E  	mov a,re
 147  001A  0080     E  	mov rc,a
 147  001B  0FFF        	mov a,255  
 147  001C  0680     E  	andm a,rb  
 147  001D  0F80        	mov a,128  
 147  001E  0680     E  	andm a,rc
 147  001F  3800     E  	snz rc.7
 147  0020  2800     R  	jmp _L5
 147  0021              #line 147 "D:\Users\IIIT\Desktop\DATATRAN\Sevro_TM_button.c"
 147  0021  0FFF        	mov a,255
 147  0022  0380     E  	addm a,rb
 147  0023  0FFF        	mov a,255
 147  0024  1380     E  	adcm a,rc
 147  0025  0FFF        	mov a,255
 147  0026  0580     E  	orm a,rc
 147  0027  0F00        	mov a,0
 147  0028  0580     E  	orm a,rb
 147  0029  1480     E  	inc rb
 147  002A  3D0A        	sz z
 147  002B  1480     E  	inc rc
 147  002C              _L5:
 147  002C  0700     E  	mov a,rb
 147  002D  00D5        	mov [85],a
 148  002E              #line 148 "D:\Users\IIIT\Desktop\DATATRAN\Sevro_TM_button.c"
 148  002E  0700     E  	mov a,rd
 148  002F  0080     E  	mov rb,a
 148  0030  0700     E  	mov a,re
 148  0031  0080     E  	mov rc,a
"File: Sevro_TM_button.c  Assembler  Version HGASM0202      Page 5

 148  0032  3800     E  	snz re.7
 148  0033  2800     R  	jmp _L6
 148  0034  0FFF        	mov a,255
 148  0035  0300     E  	add a,rd
 148  0036  0080     E  	mov rb,a
 148  0037  0F00        	mov a,0
 148  0038  1300     E  	adc a,re
 148  0039  0080     E  	mov rc,a
 148  003A              _L6:
 148  003A  0700     E  	mov a,rc
 148  003B  00D6        	mov [86],a
 149  003C              #line 149 "D:\Users\IIIT\Desktop\DATATRAN\Sevro_TM_button.c"
 149  003C  0700     E  	mov a,rd
 149  003D  0080     E  	mov ra,a
 149  003E  0700     E  	mov a,re
 149  003F  0080     E  	mov rb,a
 149  0040  1A00     E  	rlca rb
 149  0041  1B80     E  	rrc rb
 149  0042  1B80     E  	rrc ra
 149  0043  0700     E  	mov a,ra
 149  0044  0080     R  	mov _temp[0],a
 149  0045  0700     E  	mov a,rb
 149  0046  0080     R  	mov _temp[1],a
 150  0047              #line 150 "D:\Users\IIIT\Desktop\DATATRAN\Sevro_TM_button.c"
 150  0047  0700     R  	mov a,_Moto_C_2[0]
 150  0048  0080     R  	mov _Index[0],a
 150  0049  1F00     R  	clr _Index[1]
 150  004A  0003        	ret
 150  004B              _Moto_C endp
 150  004B              #line 150 "D:\Users\IIIT\Desktop\DATATRAN\Sevro_TM_button.c"
 150  004B              #pragma debug scope 1 1
 150  004B              ___adcr0 equ [104]
 150  004B              ___adcr1 equ [105]
 150  004B              ___pas0 equ [352]
 150  004B              ___pas3 equ [355]
 150  004B              public _AD_Set
 150  004B              #pragma debug scope 6 1
 153  004B              #line 153 "D:\Users\IIIT\Desktop\DATATRAN\Sevro_TM_button.c"
 153  0000              _AD_Set .section 'code'
 153  0000              _AD_Set proc
 154  0000              #line 154 "D:\Users\IIIT\Desktop\DATATRAN\Sevro_TM_button.c"
 154  0000  0F01        	mov a,1
 154  0001  00E8        	mov [104],a
 155  0002              #line 155 "D:\Users\IIIT\Desktop\DATATRAN\Sevro_TM_button.c"
 155  0002  0F66        	mov a,102
 155  0003  00E9        	mov [105],a
 156  0004              #line 156 "D:\Users\IIIT\Desktop\DATATRAN\Sevro_TM_button.c"
 156  0004  0F30        	mov a,48
 156  0005  80E0 0001   	lmov [352],a
 157  0007              #line 157 "D:\Users\IIIT\Desktop\DATATRAN\Sevro_TM_button.c"
 157  0007  0F03        	mov a,3
 157  0008  80E3 0001   	lmov [355],a
 157  000A  0003        	ret
 157  000B              _AD_Set endp
 157  000B              #line 157 "D:\Users\IIIT\Desktop\DATATRAN\Sevro_TM_button.c"
 157  000B              #pragma debug scope 1 1
 157  000B              public _button_up
 157  000B              #pragma debug scope 7 1
 161  000B              #line 161 "D:\Users\IIIT\Desktop\DATATRAN\Sevro_TM_button.c"
 161  000B              rombank 0 @button_up_code
"File: Sevro_TM_button.c  Assembler  Version HGASM0202      Page 6

 161  0000              @button_up_code .section at 4 'code'
 161  0000  0080     E  	mov r1,a
 161  0001  070B        	mov a,bp
 161  0002  1F0B        	clr bp
 161  0003  2800     R  	jmp _button_up
 161  0004              ROMBANK 0 _button_up
 161  0004              #pragma debug scope 1 1
 161  0004              @dummy4 endp
 161  0004              #pragma debug scope 8 1
 161  0000              _button_up .section 'code'
 161  0000              _button_up proc
 161  0000  0080     E  	mov r2,a
 161  0001  070A        	mov a, status
 161  0002  0080     E  	mov r3,a
 162  0003              #line 162 "D:\Users\IIIT\Desktop\DATATRAN\Sevro_TM_button.c"
 162  0003  1480     R  	inc _HallCount[0]
 163  0004              #line 163 "D:\Users\IIIT\Desktop\DATATRAN\Sevro_TM_button.c"
 163  0004  3630        	clr [48].4
 163  0005  0700     E  	mov a,r2
 163  0006  008B        	mov bp,a
 163  0007  0700     E  	mov a,r3
 163  0008  008A        	mov status,a
 163  0009  0700     E  	mov a,r1
 163  000A  0004        	reti
 163  000B              _button_up endp
 163  000B              
 163  000B              #line 163 "D:\Users\IIIT\Desktop\DATATRAN\Sevro_TM_button.c"
 163  000B              #pragma debug scope 1 1
 163  000B              ___adrh equ [107]
 163  000B              ___adrl equ [106]
 163  000B              public _ISR_STM
 163  000B              #pragma debug scope 9 1
 183  000B              #line 183 "D:\Users\IIIT\Desktop\DATATRAN\Sevro_TM_button.c"
 183  000B              rombank 0 @ISR_STM_code
 183  0000              @ISR_STM_code .section at 56 'code'
 183  0000  0080     E  	mov r1,a
 183  0001  070B        	mov a,bp
 183  0002  1F0B        	clr bp
 183  0003  2800     R  	jmp _ISR_STM
 183  0004              ROMBANK 0 _ISR_STM
 183  0004              #pragma debug scope 1 1
 183  0004              @dummy56 endp
 183  0004              #pragma debug scope 10 1
 183  0000              _ISR_STM .section 'code'
 183  0000              _ISR_STM proc
 183  0000  0080     E  	mov r2,a
 183  0001  070A        	mov a, status
 183  0002  0080     E  	mov r3,a
 184  0003              #line 184 "D:\Users\IIIT\Desktop\DATATRAN\Sevro_TM_button.c"
 184  0003  1500     R  	deca _AD10ms[0]
 184  0004  0080     E  	mov ra,a
 184  0005  1E00     E  	snz ra
 184  0006  2800     R  	jmp _L11
 184  0007              #line 184 "D:\Users\IIIT\Desktop\DATATRAN\Sevro_TM_button.c"
 184  0007  0700     E  	mov a,ra
 184  0008  0080     R  	mov _AD10ms[0],a
 184  0009  2800     R  	jmp _L12
 184  000A              _L11:
 185  000A              #line 185 "D:\Users\IIIT\Desktop\DATATRAN\Sevro_TM_button.c"
 185  000A  0F01        	mov a,1
"File: Sevro_TM_button.c  Assembler  Version HGASM0202      Page 7

 185  000B  0080     R  	mov _AD10ms[0],a
 186  000C              #line 186 "D:\Users\IIIT\Desktop\DATATRAN\Sevro_TM_button.c"
 186  000C  33E8        	set [104].7
 186  000D  37E8        	clr [104].7
 187  000E              #line 187 "D:\Users\IIIT\Desktop\DATATRAN\Sevro_TM_button.c"
 187  000E              ;# 187 "D:\Users\IIIT\Desktop\DATATRAN\Sevro_TM_button.c" 1
 187  000E  0000        	nop
 188  000F              #line 188 "D:\Users\IIIT\Desktop\DATATRAN\Sevro_TM_button.c"
 188  000F  076B        	mov a,[107]
 188  0010  0080     R  	mov _AxisXH[0],a
 189  0011              #line 189 "D:\Users\IIIT\Desktop\DATATRAN\Sevro_TM_button.c"
 189  0011  076A        	mov a,[106]
 189  0012  0080     R  	mov _AxisXL[0],a
 189  0013              _L12:
 191  0013              #line 191 "D:\Users\IIIT\Desktop\DATATRAN\Sevro_TM_button.c"
 191  0013  1500     R  	deca _Hall200ms[0]
 191  0014  0080     E  	mov ra,a
 191  0015  0700     E  	mov a,ra
 191  0016  0080     R  	mov _Hall200ms[0],a
 191  0017  1080     E  	sz ra
 191  0018  2800     R  	jmp _L13
 192  0019              #line 192 "D:\Users\IIIT\Desktop\DATATRAN\Sevro_TM_button.c"
 192  0019  0700     R  	mov a,_HallCount[0]
 192  001A  0080     R  	mov _HallData[0],a
 193  001B              #line 193 "D:\Users\IIIT\Desktop\DATATRAN\Sevro_TM_button.c"
 193  001B  1F00     R  	clr _HallCount[0]
 194  001C              #line 194 "D:\Users\IIIT\Desktop\DATATRAN\Sevro_TM_button.c"
 194  001C  0F14        	mov a,20
 194  001D  0080     R  	mov _Hall200ms[0],a
 194  001E              _L13:
 207  001E              #line 207 "D:\Users\IIIT\Desktop\DATATRAN\Sevro_TM_button.c"
 207  001E  36B8        	clr [56].5
 207  001F  0700     E  	mov a,r2
 207  0020  008B        	mov bp,a
 207  0021  0700     E  	mov a,r3
 207  0022  008A        	mov status,a
 207  0023  0700     E  	mov a,r1
 207  0024  0004        	reti
 207  0025              _ISR_STM endp
 207  0025              
 207  0025              #line 207 "D:\Users\IIIT\Desktop\DATATRAN\Sevro_TM_button.c"
 207  0025              #pragma debug scope 1 1
 207  0025              public _Delay100us
 207  0025              #pragma debug scope 11 1
 210  0025              #line 210 "D:\Users\IIIT\Desktop\DATATRAN\Sevro_TM_button.c"
 210  0000              _Delay100us .section 'code'
 210  0000              _Delay100us proc
 210  0000              public _Delay100us_2
 210  0000  0002[           local _Delay100us_2 db 2 dup(?)	; 2,0
            00
            ]
 210  0002              #pragma debug variable 10 11 _Delay100us_2+0 "del"
 212  0002              #line 212 "D:\Users\IIIT\Desktop\DATATRAN\Sevro_TM_button.c"
 212  0000  1F00     E  	clr rb
 212  0001  1F00     E  	clr rc
 212  0002              _L15:
 212  0002              #line 212 "D:\Users\IIIT\Desktop\DATATRAN\Sevro_TM_button.c"
 212  0002  0700     E  	mov a,rb
 212  0003  0200     R  	sub a,_Delay100us_2[0]
 212  0004  0700     E  	mov a,rc
"File: Sevro_TM_button.c  Assembler  Version HGASM0202      Page 8

 212  0005  1200     R  	sbc a,_Delay100us_2[1]
 212  0006  3F0A        	sz cz
 212  0007  2800     R  	jmp _L14
 212  0008  1F00     E  	clr ra
 212  0009              _L18:
 214  0009              #line 214 "D:\Users\IIIT\Desktop\DATATRAN\Sevro_TM_button.c"
 214  0009              ;# 214 "D:\Users\IIIT\Desktop\DATATRAN\Sevro_TM_button.c" 1
 214  0009  0000        	nop
 214  000A  1480     E  	inc ra
 213  000B              #line 213 "D:\Users\IIIT\Desktop\DATATRAN\Sevro_TM_button.c"
 213  000B  0700     E  	mov a,ra
 213  000C  0A1A        	sub a,26
 213  000D  390A        	snz z
 213  000E  2800     R  	jmp _L18
 212  000F              #line 212 "D:\Users\IIIT\Desktop\DATATRAN\Sevro_TM_button.c"
 212  000F  1480     E  	inc rb
 212  0010  3D0A        	sz z
 212  0011  1480     E  	inc rc
 212  0012  2800     R  	jmp _L15
 212  0013              _L14:
 212  0013  0003        	ret
 212  0014              _Delay100us endp
 212  0014              #line 212 "D:\Users\IIIT\Desktop\DATATRAN\Sevro_TM_button.c"
 212  0014              #pragma debug scope 1 1
 212  0014              public _delay_ms
 212  0014              #pragma debug scope 12 1
 217  0014              #line 217 "D:\Users\IIIT\Desktop\DATATRAN\Sevro_TM_button.c"
 217  0000              _delay_ms .section 'code'
 217  0000              _delay_ms proc
 217  0000  00              local _delay_ms_2 db 1 dup(?)	; 0,1
 217  0000  0080     R  	mov _delay_ms_2[0],a
 217  0001              #pragma debug variable 8 12 _delay_ms_2+0 "del"
 219  0001              #line 219 "D:\Users\IIIT\Desktop\DATATRAN\Sevro_TM_button.c"
 219  0001  1F00     E  	clr ra
 219  0002  2800     R  	jmp _L20
 219  0003              _L21:
 220  0003              #line 220 "D:\Users\IIIT\Desktop\DATATRAN\Sevro_TM_button.c"
 220  0003              ;# 220 "D:\Users\IIIT\Desktop\DATATRAN\Sevro_TM_button.c" 1
 220  0003              	IF 2000>263690
 220  0003              ;# 220 "D:\Users\IIIT\Desktop\DATATRAN\Sevro_TM_button.c" 1
 220  0003              	ERRMESSAGE 'the value 2000of the argument exceeds the maxinum 263690'
 220  0003              	ENDIF
 220  0003              ;# 220 "D:\Users\IIIT\Desktop\DATATRAN\Sevro_TM_button.c" 1
 220  0003              	IF 2000<0
 220  0003              ;# 220 "D:\Users\IIIT\Desktop\DATATRAN\Sevro_TM_button.c" 1
 220  0003              	ERRMESSAGE 'the value 2000 of the argument exceeds the mininum 0'
 220  0003              	ENDIF
 220  0003              ;# 220 "D:\Users\IIIT\Desktop\DATATRAN\Sevro_TM_button.c" 1
 220  0003              	IF 2000==0
 220  0003              ;# 220 "D:\Users\IIIT\Desktop\DATATRAN\Sevro_TM_button.c" 1
 220  0003              	JMP $
 220  0003              	ENDIF
 220  0003              ;# 220 "D:\Users\IIIT\Desktop\DATATRAN\Sevro_TM_button.c" 1
 220  0003              	IF (2000>=1) AND (2000<( 4 + __PBP__ * 2))
 220  0003              ;# 220 "D:\Users\IIIT\Desktop\DATATRAN\Sevro_TM_button.c" 1
 220  0003              	NOP
 220  0003              	ENDIF
 220  0003              ;# 220 "D:\Users\IIIT\Desktop\DATATRAN\Sevro_TM_button.c" 1
 220  0003              	IF (2000>=2) AND (2000<( 4 + __PBP__ * 2))
 220  0003              ;# 220 "D:\Users\IIIT\Desktop\DATATRAN\Sevro_TM_button.c" 1
"File: Sevro_TM_button.c  Assembler  Version HGASM0202      Page 9

 220  0003              	NOP
 220  0003              	ENDIF
 220  0003              ;# 220 "D:\Users\IIIT\Desktop\DATATRAN\Sevro_TM_button.c" 1
 220  0003              	IF (2000>=3) AND (2000<( 4 + __PBP__ * 2))
 220  0003              ;# 220 "D:\Users\IIIT\Desktop\DATATRAN\Sevro_TM_button.c" 1
 220  0003              	NOP
 220  0003              	ENDIF
 220  0003              ;# 220 "D:\Users\IIIT\Desktop\DATATRAN\Sevro_TM_button.c" 1
 220  0003              	IF (2000>=4) AND (2000<( 4 + __PBP__ * 2)) AND ( __PBP__ > 0 )
 220  0003              ;# 220 "D:\Users\IIIT\Desktop\DATATRAN\Sevro_TM_button.c" 1
 220  0003              	NOP
 220  0003              	ENDIF
 220  0003              ;# 220 "D:\Users\IIIT\Desktop\DATATRAN\Sevro_TM_button.c" 1
 220  0003              	IF (2000>=5) AND (2000<( 4 + __PBP__ * 2)) AND ( __PBP__ > 0 )
 220  0003              ;# 220 "D:\Users\IIIT\Desktop\DATATRAN\Sevro_TM_button.c" 1
 220  0003              	NOP
 220  0003              	ENDIF
 220  0003              ;# 220 "D:\Users\IIIT\Desktop\DATATRAN\Sevro_TM_button.c" 1
 220  0003              	IF (2000>=6) AND (2000<( 4 + __PBP__ * 2))  AND ( __PBP__ > 1 )
 220  0003              ;# 220 "D:\Users\IIIT\Desktop\DATATRAN\Sevro_TM_button.c" 1
 220  0003              	NOP
 220  0003              	ENDIF
 220  0003              ;# 220 "D:\Users\IIIT\Desktop\DATATRAN\Sevro_TM_button.c" 1
 220  0003              	IF (2000>=7) AND (2000<( 4 + __PBP__ * 2))  AND ( __PBP__ > 1 )
 220  0003              ;# 220 "D:\Users\IIIT\Desktop\DATATRAN\Sevro_TM_button.c" 1
 220  0003              	NOP
 220  0003              	ENDIF
 220  0003              ;# 220 "D:\Users\IIIT\Desktop\DATATRAN\Sevro_TM_button.c" 1
 220  0003              	IF (2000>=8) AND (2000<( 4 + __PBP__ * 2))  AND ( __PBP__ > 2 )
 220  0003              ;# 220 "D:\Users\IIIT\Desktop\DATATRAN\Sevro_TM_button.c" 1
 220  0003              	NOP
 220  0003              	ENDIF
 220  0003              ;# 220 "D:\Users\IIIT\Desktop\DATATRAN\Sevro_TM_button.c" 1
 220  0003              	IF (2000==9)  AND ( __PBP__ > 2 )
 220  0003              ;# 220 "D:\Users\IIIT\Desktop\DATATRAN\Sevro_TM_button.c" 1
 220  0003              	NOP
 220  0003              	ENDIF
 220  0003              ;# 220 "D:\Users\IIIT\Desktop\DATATRAN\Sevro_TM_button.c" 1
 220  0003              	IF (2000< ( 8 + __PBP__ * 2)) AND (2000>( 3 + __PBP__ * 2))
 220  0003              ;# 220 "D:\Users\IIIT\Desktop\DATATRAN\Sevro_TM_button.c" 1
 220  0003              	fcall __DELAY3 + ( 7 + __PBP__ * 2) -2000
 220  0003              	ENDIF
 220  0003              ;# 220 "D:\Users\IIIT\Desktop\DATATRAN\Sevro_TM_button.c" 1
 220  0003              	IF (2000< ( 0404h + __PBP__ * 2)) AND (2000>( 7 + __PBP__ * 2))
 220  0003              ;# 220 "D:\Users\IIIT\Desktop\DATATRAN\Sevro_TM_button.c" 1
 220  0003              	MOV A,(2000-( 4 + __PBP__ * 2))/4
 220  0003              ;# 220 "D:\Users\IIIT\Desktop\DATATRAN\Sevro_TM_button.c" 1
 220  0003              	fcall __DELAYX3 + 3 -((2000-( 4 + __PBP__ * 2)) MOD 4) 
 220  0003              	ENDIF
 220  0003              ;# 220 "D:\Users\IIIT\Desktop\DATATRAN\Sevro_TM_button.c" 1
 220  0003              	IF (2000< ( 040bh + __PBP__ * 2)) AND (2000> ( 0403h + __PBP__ * 2))
 220  0003              ;# 220 "D:\Users\IIIT\Desktop\DATATRAN\Sevro_TM_button.c" 1
 220  0003              	MOV A,0 
 220  0003              ;# 220 "D:\Users\IIIT\Desktop\DATATRAN\Sevro_TM_button.c" 1
 220  0003              	fcall __DELAYX6 + ( 040ah + __PBP__ * 2) -2000
 220  0003              	ENDIF
 220  0003              ;# 220 "D:\Users\IIIT\Desktop\DATATRAN\Sevro_TM_button.c" 1
 220  0003              	IF (2000 >= ( 040bh + __PBP__ * 2)) AND ((((2000-( 9 + __PBP__ * 2))%0402h)/4+1)>256)
 220  0003              ;# 220 "D:\Users\IIIT\Desktop\DATATRAN\Sevro_TM_button.c" 1
 220  0003              	MOV A,(2000-( 9 + __PBP__ * 2))/0402h
"File: Sevro_TM_button.c  Assembler  Version HGASM0202      Page 10

 220  0003              ;# 220 "D:\Users\IIIT\Desktop\DATATRAN\Sevro_TM_button.c" 1
 220  0003              	MOV _builtin_holtek_delay_2,A
 220  0003              ;# 220 "D:\Users\IIIT\Desktop\DATATRAN\Sevro_TM_button.c" 1
 220  0003              	MOV A,0
 220  0003              ;# 220 "D:\Users\IIIT\Desktop\DATATRAN\Sevro_TM_button.c" 1
 220  0003              	fcall __DELAYY5 +5- (((2000-( 9 + __PBP__ * 2))%0402h)%6) 
 220  0003              	ENDIF
 220  0003              ;# 220 "D:\Users\IIIT\Desktop\DATATRAN\Sevro_TM_button.c" 1
 220  0003              	IF (2000 >= ( 040bh + __PBP__ * 2)) AND ((((2000-( 9 + __PBP__ * 2))%0402h)/4+1)<=256)
 220  0003              ;# 220 "D:\Users\IIIT\Desktop\DATATRAN\Sevro_TM_button.c" 1
 220  0003  0F01        	MOV A,(2000-( 9 + __PBP__ * 2))/0402h
 220  0004              ;# 220 "D:\Users\IIIT\Desktop\DATATRAN\Sevro_TM_button.c" 1
 220  0004  0080     E  	MOV _builtin_holtek_delay_2,A
 220  0005              ;# 220 "D:\Users\IIIT\Desktop\DATATRAN\Sevro_TM_button.c" 1
 220  0005  0FF1        	MOV A,((2000-( 9 + __PBP__ * 2))%0402h)/4+1
 220  0006              ;# 220 "D:\Users\IIIT\Desktop\DATATRAN\Sevro_TM_button.c" 1
 220  0006              	fcall __DELAYY3 +3-(((2000-( 9 + __PBP__ * 2))%0402h)%4) 
 220  000D              	ENDIF
 219  000D              #line 219 "D:\Users\IIIT\Desktop\DATATRAN\Sevro_TM_button.c"
 219  000D  1480     E  	inc ra
 219  000E              _L20:
 219  000E  0700     E  	mov a,ra
 219  000F  0200     R  	sub a,_delay_ms_2[0]
 219  0010  390A        	snz z
 219  0011  2800     R  	jmp _L21
 219  0012  0003        	ret
 219  0013              _delay_ms endp
 219  0013              #line 219 "D:\Users\IIIT\Desktop\DATATRAN\Sevro_TM_button.c"
 219  0013              #pragma debug scope 1 1
 219  0013              ___tm0al equ [98]
 219  0013              ___tm0ah equ [99]
 219  0013              ___pc equ [26]
 219  0013              ___mfi0 equ [52]
 219  0013              public _UARTTxData
 219  0013              #pragma debug scope 13 1
 224  0013              #line 224 "D:\Users\IIIT\Desktop\DATATRAN\Sevro_TM_button.c"
 224  0000              _UARTTxData .section 'code'
 224  0000              _UARTTxData proc
 224  0000  00              local _UARTTxData_2 db 1 dup(?)	; 0,1
 224  0000  0080     R  	mov _UARTTxData_2[0],a
 224  0001              #pragma debug variable 8 13 _UARTTxData_2+0 "data"
 225  0001              #line 225 "D:\Users\IIIT\Desktop\DATATRAN\Sevro_TM_button.c"
 225  0001  0F41        	mov a,65
 225  0002  00E2        	mov [98],a
 225  0003  0F03        	mov a,3
 225  0004  00E3        	mov [99],a
 226  0005              #line 226 "D:\Users\IIIT\Desktop\DATATRAN\Sevro_TM_button.c"
 226  0005  349A        	clr [26].1
 227  0006              #line 227 "D:\Users\IIIT\Desktop\DATATRAN\Sevro_TM_button.c"
 227  0006  31DE        	set [94].3
 228  0007              #line 228 "D:\Users\IIIT\Desktop\DATATRAN\Sevro_TM_button.c"
 228  0007  36B4        	clr [52].5
 228  0008              _L24:
 229  0008              #line 229 "D:\Users\IIIT\Desktop\DATATRAN\Sevro_TM_button.c"
 229  0008  3AB4        	snz [52].5
 229  0009  2800     R  	jmp _L24
 230  000A              #line 230 "D:\Users\IIIT\Desktop\DATATRAN\Sevro_TM_button.c"
 230  000A  36B4        	clr [52].5
 230  000B  1F00     E  	clr rb
 224  000C              #line 224 "D:\Users\IIIT\Desktop\DATATRAN\Sevro_TM_button.c"
"File: Sevro_TM_button.c  Assembler  Version HGASM0202      Page 11

 224  000C  0F01        	mov a,1
 224  000D  0080     E  	mov ra,a
 224  000E              _L28:
 232  000E              #line 232 "D:\Users\IIIT\Desktop\DATATRAN\Sevro_TM_button.c"
 232  000E  0700     E  	mov a,ra
 232  000F  0600     R  	and a,_UARTTxData_2[0]
 232  0010  0080     E  	mov rc,a
 232  0011  0F00        	mov a,0
 232  0012  0200     E  	sub a,rc
 232  0013  0080     E  	mov rd,a
 232  0014  0700     E  	mov a,rd
 232  0015  0580     E  	orm a,rc
 232  0016  1A80     E  	rlc rc
 232  0017  1F00     E  	clr rc
 232  0018  1A80     E  	rlc rc
 232  0019  0700     E  	mov a,rc
 232  001A  0380     E  	addm a,rc
 232  001B  349A        	clr [26].1
 232  001C  0700     E  	mov a,rc
 232  001D  059A        	orm a,[26]
 232  001E              _L26:
 233  001E              #line 233 "D:\Users\IIIT\Desktop\DATATRAN\Sevro_TM_button.c"
 233  001E  3AB4        	snz [52].5
 233  001F  2800     R  	jmp _L26
 234  0020              #line 234 "D:\Users\IIIT\Desktop\DATATRAN\Sevro_TM_button.c"
 234  0020  36B4        	clr [52].5
 235  0021              #line 235 "D:\Users\IIIT\Desktop\DATATRAN\Sevro_TM_button.c"
 235  0021  0700     E  	mov a,ra
 235  0022  0380     E  	addm a,ra
 235  0023  1480     E  	inc rb
 236  0024              #line 236 "D:\Users\IIIT\Desktop\DATATRAN\Sevro_TM_button.c"
 236  0024  0700     E  	mov a,rb
 236  0025  0A08        	sub a,8
 236  0026  390A        	snz z
 236  0027  2800     R  	jmp _L28
 237  0028              #line 237 "D:\Users\IIIT\Desktop\DATATRAN\Sevro_TM_button.c"
 237  0028  309A        	set [26].1
 237  0029              _L30:
 238  0029              #line 238 "D:\Users\IIIT\Desktop\DATATRAN\Sevro_TM_button.c"
 238  0029  3AB4        	snz [52].5
 238  002A  2800     R  	jmp _L30
 239  002B              #line 239 "D:\Users\IIIT\Desktop\DATATRAN\Sevro_TM_button.c"
 239  002B  35DE        	clr [94].3
 239  002C  0003        	ret
 239  002D              _UARTTxData endp
 239  002D              #line 239 "D:\Users\IIIT\Desktop\DATATRAN\Sevro_TM_button.c"
 239  002D              #pragma debug scope 1 1
 239  002D              public _TranAxis
 239  002D              #pragma debug scope 14 1
 243  002D              #line 243 "D:\Users\IIIT\Desktop\DATATRAN\Sevro_TM_button.c"
 243  0000              _TranAxis .section 'code'
 243  0000              _TranAxis proc
 244  0000              #line 244 "D:\Users\IIIT\Desktop\DATATRAN\Sevro_TM_button.c"
 244  0000  0700     R  	mov a,_SendX[1]
 244  0001  0080     E  	mov rb,a
 244  0002  0700     E  	mov a,rb
 244  0003  0080     R  	mov _SendXH[0],a
 245  0004              #line 245 "D:\Users\IIIT\Desktop\DATATRAN\Sevro_TM_button.c"
 245  0004  0700     R  	mov a,_SendX[0]
 245  0005  0080     R  	mov _SendXL[0],a
"File: Sevro_TM_button.c  Assembler  Version HGASM0202      Page 12

 249  0006              #line 249 "D:\Users\IIIT\Desktop\DATATRAN\Sevro_TM_button.c"
 249  0006  0700     R  	mov a,_Head[0]
 249  0007  0080     E  	mov ra,a
 249  0008  0700     E  	mov a,rb
 249  0009  0300     E  	add a,ra
 249  000A  0080     R  	mov _AXCRC[0],a
 250  000B              #line 250 "D:\Users\IIIT\Desktop\DATATRAN\Sevro_TM_button.c"
 250  000B  0700     E  	mov a,ra
 250  000C              	fcall _UARTTxData
 251  0013              #line 251 "D:\Users\IIIT\Desktop\DATATRAN\Sevro_TM_button.c"
 251  0013  0700     R  	mov a,_SendXH[0]
 251  0014              	fcall _UARTTxData
 252  001B              #line 252 "D:\Users\IIIT\Desktop\DATATRAN\Sevro_TM_button.c"
 252  001B  0700     R  	mov a,_SendXL[0]
 252  001C              	fcall _UARTTxData
 253  0023              #line 253 "D:\Users\IIIT\Desktop\DATATRAN\Sevro_TM_button.c"
 253  0023  0700     R  	mov a,_Axcount[0]
 253  0024              	fcall _UARTTxData
 254  002B              #line 254 "D:\Users\IIIT\Desktop\DATATRAN\Sevro_TM_button.c"
 254  002B  0700     R  	mov a,_AXCRC[0]
 254  002C              	fcall _UARTTxData
 254  0033  0003        	ret
 254  0034              _TranAxis endp
 254  0034              #line 254 "D:\Users\IIIT\Desktop\DATATRAN\Sevro_TM_button.c"
 254  0034              #pragma debug scope 1 1
 254  0034              public _TranHall
 254  0034              #pragma debug scope 15 1
 258  0034              #line 258 "D:\Users\IIIT\Desktop\DATATRAN\Sevro_TM_button.c"
 258  0000              _TranHall .section 'code'
 258  0000              _TranHall proc
 265  0000              #line 265 "D:\Users\IIIT\Desktop\DATATRAN\Sevro_TM_button.c"
 265  0000  0700     R  	mov a,_HallHead[0]
 265  0001  0080     E  	mov ra,a
 265  0002  0700     R  	mov a,_HallData[0]
 265  0003  0300     E  	add a,ra
 265  0004  0080     R  	mov _HallCRC[0],a
 266  0005              #line 266 "D:\Users\IIIT\Desktop\DATATRAN\Sevro_TM_button.c"
 266  0005  0700     E  	mov a,ra
 266  0006              	fcall _UARTTxData
 267  000D              #line 267 "D:\Users\IIIT\Desktop\DATATRAN\Sevro_TM_button.c"
 267  000D  0700     R  	mov a,_HallData[0]
 267  000E              	fcall _UARTTxData
 268  0015              #line 268 "D:\Users\IIIT\Desktop\DATATRAN\Sevro_TM_button.c"
 268  0015  0700     R  	mov a,_Axcount[0]
 268  0016              	fcall _UARTTxData
 269  001D              #line 269 "D:\Users\IIIT\Desktop\DATATRAN\Sevro_TM_button.c"
 269  001D  0700     R  	mov a,_Hacount[0]
 269  001E              	fcall _UARTTxData
 270  0025              #line 270 "D:\Users\IIIT\Desktop\DATATRAN\Sevro_TM_button.c"
 270  0025  0700     R  	mov a,_HallCRC[0]
 270  0026              	fcall _UARTTxData
 270  002D  0003        	ret
 270  002E              _TranHall endp
 270  002E              #line 270 "D:\Users\IIIT\Desktop\DATATRAN\Sevro_TM_button.c"
 270  002E              #pragma debug scope 1 1
 270  002E              public _ShiftRightArray
 270  002E              #pragma debug scope 16 1
 274  002E              #line 274 "D:\Users\IIIT\Desktop\DATATRAN\Sevro_TM_button.c"
 274  0000              _ShiftRightArray .section 'code'
 274  0000              _ShiftRightArray proc
"File: Sevro_TM_button.c  Assembler  Version HGASM0202      Page 13

 274  0000              public _ShiftRightArray_2
 274  0000  0002[           local _ShiftRightArray_2 db 2 dup(?)	; 2,0
            00
            ]
 274  0002              #pragma debug pointer 42 12 16
 274  0002              #pragma debug pointer 42 12 16
 274  0002              #pragma debug variable 42 16 _ShiftRightArray_2+0 "Array"
 275  0002              #line 275 "D:\Users\IIIT\Desktop\DATATRAN\Sevro_TM_button.c"
 275  0000  0F05        	mov a,5
 275  0001  0080     R  	mov _i[0],a
 275  0002  0F05        	mov a,5
 275  0003  0080     E  	mov ra,a
 275  0004              _L34:
 277  0004              #line 277 "D:\Users\IIIT\Desktop\DATATRAN\Sevro_TM_button.c"
 277  0004  0700     E  	mov a,ra
 277  0005  0080     E  	mov rb,a
 277  0006  1F00     E  	clr rc
 277  0007  340A        	clr c
 277  0008  1A00     E  	rlca rb
 277  0009  0080     E  	mov rd,a
 277  000A  1A00     E  	rlca rc
 277  000B  0080     E  	mov re,a
 277  000C  0F00     R  	mov a,low (offset _XArr-2)
 277  000D  0300     E  	add a,rd
 277  000E  0083        	mov mp,a
 277  000F  0F00     R  	mov a,high (offset _XArr-2)
 277  0010  1300     E  	adc a,re
 277  0011  0084        	mov sbp,a
 277  0012              	fcall _Crom2Prom
 277  0019  0080     E  	mov rd,a
 277  001A              	fcall _Crom2PromNext
 277  0021  0080     E  	mov re,a
 277  0022  340A        	clr c
 277  0023  1A80     E  	rlc rb
 277  0024  1A80     E  	rlc rc
 277  0025  0F00     R  	mov a,low offset _XArr
 277  0026  0300     E  	add a,rb
 277  0027  0083        	mov mp,a
 277  0028  0F00     R  	mov a,high offset _XArr
 277  0029  1300     E  	adc a,rc
 277  002A  0084        	mov sbp,a
 277  002B  0700     E  	mov a,rd
 277  002C  0082        	mov ir,a
 277  002D  1483        	inc mp
 277  002E  0700     E  	mov a,re
 277  002F  0082        	mov ir,a
 275  0030              #line 275 "D:\Users\IIIT\Desktop\DATATRAN\Sevro_TM_button.c"
 275  0030  1780     E  	sdz ra
 275  0031  2800     R  	jmp _L34
 279  0032              #line 279 "D:\Users\IIIT\Desktop\DATATRAN\Sevro_TM_button.c"
 279  0032  0700     R  	mov a,_AxisX[0]
 279  0033  0080     R  	mov _XArr[0],a
 279  0034  0700     R  	mov a,_AxisX[1]
 279  0035  0080     R  	mov _XArr[1],a
 280  0036              #line 280 "D:\Users\IIIT\Desktop\DATATRAN\Sevro_TM_button.c"
 280  0036  1F00     R  	clr _i[0]
 280  0037  1F00     E  	clr ra
 280  0038              _L36:
 282  0038              #line 282 "D:\Users\IIIT\Desktop\DATATRAN\Sevro_TM_button.c"
 282  0038  0700     E  	mov a,ra
"File: Sevro_TM_button.c  Assembler  Version HGASM0202      Page 14

 282  0039  0080     E  	mov rb,a
 282  003A  1F00     E  	clr rc
 282  003B  340A        	clr c
 282  003C  1A80     E  	rlc rb
 282  003D  1A80     E  	rlc rc
 282  003E  0700     E  	mov a,rb
 282  003F  0300     R  	add a,_ShiftRightArray_2[0]
 282  0040  0083        	mov mp,a
 282  0041  0700     E  	mov a,rc
 282  0042  1300     R  	adc a,_ShiftRightArray_2[1]
 282  0043  0084        	mov sbp,a
 282  0044              	fcall _Crom2Prom
 282  004B  0080     E  	mov rd,a
 282  004C              	fcall _Crom2PromNext
 282  0053  0080     E  	mov re,a
 282  0054  0F00     R  	mov a,low offset _XArrSort
 282  0055  0300     E  	add a,rb
 282  0056  0083        	mov mp,a
 282  0057  0F00     R  	mov a,high offset _XArrSort
 282  0058  1300     E  	adc a,rc
 282  0059  0084        	mov sbp,a
 282  005A  0700     E  	mov a,rd
 282  005B  0082        	mov ir,a
 282  005C  1483        	inc mp
 282  005D  0700     E  	mov a,re
 282  005E  0082        	mov ir,a
 280  005F              #line 280 "D:\Users\IIIT\Desktop\DATATRAN\Sevro_TM_button.c"
 280  005F  1480     E  	inc ra
 280  0060  0F04        	mov a,4
 280  0061  0200     E  	sub a,ra
 280  0062  3C0A        	sz c
 280  0063  2800     R  	jmp _L36
 280  0064  0700     E  	mov a,ra
 280  0065  0080     R  	mov _i[0],a
 280  0066  0003        	ret
 280  0067              _ShiftRightArray endp
 280  0067              #line 280 "D:\Users\IIIT\Desktop\DATATRAN\Sevro_TM_button.c"
 280  0067              #pragma debug scope 1 1
 280  0067              public _AxisCal
 280  0067              #pragma debug scope 17 1
 287  0067              #line 287 "D:\Users\IIIT\Desktop\DATATRAN\Sevro_TM_button.c"
 287  0000              _AxisCal .section 'code'
 287  0000              _AxisCal proc
 288  0000              #line 288 "D:\Users\IIIT\Desktop\DATATRAN\Sevro_TM_button.c"
 288  0000  0700     R  	mov a,_AxisXH[0]
 288  0001  0080     E  	mov rc,a
 288  0002  1F00     E  	clr rb
 289  0003              #line 289 "D:\Users\IIIT\Desktop\DATATRAN\Sevro_TM_button.c"
 289  0003  0700     R  	mov a,_AxisXL[0]
 289  0004  0300     E  	add a,rb
 289  0005  0080     R  	mov _AxisX[0],a
 289  0006  1F05        	clr acc
 289  0007  1300     E  	adc a,rc
 289  0008  0080     R  	mov _AxisX[1],a
 289  0009  0003        	ret
 289  000A              _AxisCal endp
 289  000A              #line 289 "D:\Users\IIIT\Desktop\DATATRAN\Sevro_TM_button.c"
 289  000A              #pragma debug scope 1 1
 289  000A              public _PutValueArray
 289  000A              #pragma debug scope 18 1
"File: Sevro_TM_button.c  Assembler  Version HGASM0202      Page 15

 293  000A              #line 293 "D:\Users\IIIT\Desktop\DATATRAN\Sevro_TM_button.c"
 293  0000              _PutValueArray .section 'code'
 293  0000              _PutValueArray proc
 293  0000              public _PutValueArray_2
 293  0000  0002[           local _PutValueArray_2 db 2 dup(?)	; 2,0
            00
            ]
 293  0002              #pragma debug pointer 43 12 18
 293  0002              #pragma debug pointer 43 12 18
 293  0002              #pragma debug variable 43 18 _PutValueArray_2+0 "Array"
 294  0002              #line 294 "D:\Users\IIIT\Desktop\DATATRAN\Sevro_TM_button.c"
 294  0000  1F00     R  	clr _i[0]
 294  0001  2800     R  	jmp _L40
 294  0002              _L41:
 296  0002              #line 296 "D:\Users\IIIT\Desktop\DATATRAN\Sevro_TM_button.c"
 296  0002              	fcall _AxisCal
 297  0009              #line 297 "D:\Users\IIIT\Desktop\DATATRAN\Sevro_TM_button.c"
 297  0009  0700     R  	mov a,_i[0]
 297  000A  0080     E  	mov ra,a
 297  000B  0700     E  	mov a,ra
 297  000C  0080     E  	mov rb,a
 297  000D  1F00     E  	clr rc
 297  000E  340A        	clr c
 297  000F  1A80     E  	rlc rb
 297  0010  1A80     E  	rlc rc
 297  0011  0700     E  	mov a,rb
 297  0012  0300     R  	add a,_PutValueArray_2[0]
 297  0013  0083        	mov mp,a
 297  0014  0700     E  	mov a,rc
 297  0015  1300     R  	adc a,_PutValueArray_2[1]
 297  0016  0084        	mov sbp,a
 297  0017  0700     R  	mov a,_AxisX[0]
 297  0018  0082        	mov ir,a
 297  0019  1483        	inc mp
 297  001A  0700     R  	mov a,_AxisX[1]
 297  001B  0082        	mov ir,a
 294  001C              #line 294 "D:\Users\IIIT\Desktop\DATATRAN\Sevro_TM_button.c"
 294  001C  1400     E  	inca ra
 294  001D  0080     R  	mov _i[0],a
 294  001E              _L40:
 294  001E  0F04        	mov a,4
 294  001F  0200     R  	sub a,_i[0]
 294  0020  3C0A        	sz c
 294  0021  2800     R  	jmp _L41
 294  0022  0003        	ret
 294  0023              _PutValueArray endp
 294  0023              #line 294 "D:\Users\IIIT\Desktop\DATATRAN\Sevro_TM_button.c"
 294  0023              #pragma debug scope 1 1
 294  0023              public _VariancePulsByLoad
 294  0023              #pragma debug scope 19 1
 302  0023              #line 302 "D:\Users\IIIT\Desktop\DATATRAN\Sevro_TM_button.c"
 302  0000              _VariancePulsByLoad .section 'code'
 302  0000              _VariancePulsByLoad proc
 302  0000              public _VariancePulsByLoad_2
 302  0000  0006[           local _VariancePulsByLoad_2 db 6 dup(?)	; 2,4
            00
            ]
 302  0006              #pragma debug pointer 44 12 19
 302  0006              #pragma debug pointer 44 12 19
 302  0006              #pragma debug variable 44 19 _VariancePulsByLoad_2+0 "SortArray"
"File: Sevro_TM_button.c  Assembler  Version HGASM0202      Page 16

 305  0006              #line 305 "D:\Users\IIIT\Desktop\DATATRAN\Sevro_TM_button.c"
 305  0000  1F00     E  	clr _pow_2[4]
 305  0001  1F00     E  	clr _pow_2[5]
 305  0002  1F00     E  	clr _pow_2[6]
 305  0003  0F40        	mov a,64
 305  0004  0080     E  	mov _pow_2[7],a
 305  0005  0700     R  	mov a,_VariancePulsByLoad_2[0]
 305  0006  0080     E  	mov rd,a
 305  0007  0700     R  	mov a,_VariancePulsByLoad_2[1]
 305  0008  0080     E  	mov re,a
 305  0009  0F02        	mov a,2
 305  000A  0300     E  	add a,rd
 305  000B  0083        	mov mp,a
 305  000C  0F00        	mov a,0
 305  000D  1300     E  	adc a,re
 305  000E  0084        	mov sbp,a
 305  000F              	fcall _Crom2Prom
 305  0016  0080     E  	mov rb,a
 305  0017              	fcall _Crom2PromNext
 305  001E  0080     E  	mov rc,a
 305  001F  0F04        	mov a,4
 305  0020  0300     E  	add a,rd
 305  0021  0083        	mov mp,a
 305  0022  0F00        	mov a,0
 305  0023  1300     E  	adc a,re
 305  0024  0084        	mov sbp,a
 305  0025              	fcall _Crom2Prom
 305  002C  0080     E  	mov rd,a
 305  002D              	fcall _Crom2PromNext
 305  0034  0080     E  	mov re,a
 305  0035  0700     E  	mov a,rb
 305  0036  0200     E  	sub a,rd
 305  0037  0080     E  	mov rb,a
 305  0038  0700     E  	mov a,rc
 305  0039  1200     E  	sbc a,re
 305  003A  0080     E  	mov rc,a
 305  003B  0700     E  	mov a,rc
 305  003C  0080     E  	mov _builtin_holtek_mant1[1],a
 305  003D  0700     E  	mov a,rb
 305  003E  0080     E  	mov _builtin_holtek_mant1[0],a
 305  003F  3400     E  	clr _builtin_holtek_signs.0
 305  0040              	fcall _builtin_holtek_uitod
 305  0047  0700     E  	mov a,_builtin_holtek_mant12p[0]
 305  0048  0080     E  	mov _pow_2[3],a
 305  0049  0700     E  	mov a,_builtin_holtek_mant1[2]
 305  004A  0080     E  	mov _pow_2[2],a
 305  004B  0700     E  	mov a,_builtin_holtek_mant1[1]
 305  004C  0080     E  	mov _pow_2[1],a
 305  004D  0700     E  	mov a,_builtin_holtek_mant1[0]
 305  004E  0080     E  	mov _pow_2[0],a
 305  004F              	fcall _pow
 305  0056  0700     E  	mov a,ra
 305  0057  0080     R  	mov _VariancePulsByLoad_2[2],a
 305  0058  0700     E  	mov a,rb
 305  0059  0080     R  	mov _VariancePulsByLoad_2[3],a
 305  005A  0700     E  	mov a,rc
 305  005B  0080     R  	mov _VariancePulsByLoad_2[4],a
 305  005C  0700     E  	mov a,rd
 305  005D  0080     R  	mov _VariancePulsByLoad_2[5],a
 306  005E              #line 306 "D:\Users\IIIT\Desktop\DATATRAN\Sevro_TM_button.c"
"File: Sevro_TM_button.c  Assembler  Version HGASM0202      Page 17

 306  005E  1F00     E  	clr _pow_2[4]
 306  005F  1F00     E  	clr _pow_2[5]
 306  0060  1F00     E  	clr _pow_2[6]
 306  0061  0F40        	mov a,64
 306  0062  0080     E  	mov _pow_2[7],a
 306  0063  0700     R  	mov a,_VariancePulsByLoad_2[0]
 306  0064  0080     E  	mov rd,a
 306  0065  0700     R  	mov a,_VariancePulsByLoad_2[1]
 306  0066  0080     E  	mov re,a
 306  0067  0F06        	mov a,6
 306  0068  0300     E  	add a,rd
 306  0069  0083        	mov mp,a
 306  006A  0F00        	mov a,0
 306  006B  1300     E  	adc a,re
 306  006C  0084        	mov sbp,a
 306  006D              	fcall _Crom2Prom
 306  0074  0080     E  	mov rb,a
 306  0075              	fcall _Crom2PromNext
 306  007C  0080     E  	mov rc,a
 306  007D  0F04        	mov a,4
 306  007E  0300     E  	add a,rd
 306  007F  0083        	mov mp,a
 306  0080  0F00        	mov a,0
 306  0081  1300     E  	adc a,re
 306  0082  0084        	mov sbp,a
 306  0083              	fcall _Crom2Prom
 306  008A  0080     E  	mov rd,a
 306  008B              	fcall _Crom2PromNext
 306  0092  0080     E  	mov re,a
 306  0093  0700     E  	mov a,rb
 306  0094  0200     E  	sub a,rd
 306  0095  0080     E  	mov rb,a
 306  0096  0700     E  	mov a,rc
 306  0097  1200     E  	sbc a,re
 306  0098  0080     E  	mov rc,a
 306  0099  0700     E  	mov a,rc
 306  009A  0080     E  	mov _builtin_holtek_mant1[1],a
 306  009B  0700     E  	mov a,rb
 306  009C  0080     E  	mov _builtin_holtek_mant1[0],a
 306  009D  3400     E  	clr _builtin_holtek_signs.0
 306  009E              	fcall _builtin_holtek_uitod
 306  00A5  0700     E  	mov a,_builtin_holtek_mant12p[0]
 306  00A6  0080     E  	mov _pow_2[3],a
 306  00A7  0700     E  	mov a,_builtin_holtek_mant1[2]
 306  00A8  0080     E  	mov _pow_2[2],a
 306  00A9  0700     E  	mov a,_builtin_holtek_mant1[1]
 306  00AA  0080     E  	mov _pow_2[1],a
 306  00AB  0700     E  	mov a,_builtin_holtek_mant1[0]
 306  00AC  0080     E  	mov _pow_2[0],a
 306  00AD              	fcall _pow
 306  00B4  0700     E  	mov a,rd
 306  00B5  0080     E  	mov _builtin_holtek_mant12p[0],a
 306  00B6  0700     E  	mov a,rc
 306  00B7  0080     E  	mov _builtin_holtek_mant1[2],a
 306  00B8  0700     E  	mov a,rb
 306  00B9  0080     E  	mov _builtin_holtek_mant1[1],a
 306  00BA  0700     E  	mov a,ra
 306  00BB  0080     E  	mov _builtin_holtek_mant1[0],a
 306  00BC              	fcall _builtin_holtek_dtol
 306  00C3  0700     E  	mov a,_builtin_holtek_mant12p[0]
"File: Sevro_TM_button.c  Assembler  Version HGASM0202      Page 18

 306  00C4  0080     E  	mov rg,a
 306  00C5  0700     E  	mov a,_builtin_holtek_mant1[2]
 306  00C6  0080     E  	mov rf,a
 306  00C7  0700     E  	mov a,_builtin_holtek_mant1[1]
 306  00C8  0080     E  	mov re,a
 306  00C9  0700     E  	mov a,_builtin_holtek_mant1[0]
 306  00CA  0080     E  	mov rd,a
 305  00CB              #line 305 "D:\Users\IIIT\Desktop\DATATRAN\Sevro_TM_button.c"
 305  00CB  0700     R  	mov a,_VariancePulsByLoad_2[5]
 305  00CC  0080     E  	mov _builtin_holtek_mant12p[0],a
 305  00CD  0700     R  	mov a,_VariancePulsByLoad_2[4]
 305  00CE  0080     E  	mov _builtin_holtek_mant1[2],a
 305  00CF  0700     R  	mov a,_VariancePulsByLoad_2[3]
 305  00D0  0080     E  	mov _builtin_holtek_mant1[1],a
 305  00D1  0700     R  	mov a,_VariancePulsByLoad_2[2]
 305  00D2  0080     E  	mov _builtin_holtek_mant1[0],a
 305  00D3              	fcall _builtin_holtek_dtol
 305  00DA  0700     E  	mov a,_builtin_holtek_mant12p[0]
 305  00DB  0080     R  	mov _VariancePulsByLoad_2[5],a
 305  00DC  0700     E  	mov a,_builtin_holtek_mant1[2]
 305  00DD  0080     R  	mov _VariancePulsByLoad_2[4],a
 305  00DE  0700     E  	mov a,_builtin_holtek_mant1[1]
 305  00DF  0080     R  	mov _VariancePulsByLoad_2[3],a
 305  00E0  0700     E  	mov a,_builtin_holtek_mant1[0]
 305  00E1  0080     R  	mov _VariancePulsByLoad_2[2],a
 307  00E2              #line 307 "D:\Users\IIIT\Desktop\DATATRAN\Sevro_TM_button.c"
 307  00E2  0700     R  	mov a,_VariancePulsByLoad_2[2]
 307  00E3  0380     E  	addm a,rd
 307  00E4  0700     R  	mov a,_VariancePulsByLoad_2[3]
 307  00E5  1380     E  	adcm a,re
 307  00E6  0700     E  	mov a,re
 307  00E7  0080     E  	mov _builtin_holtek_mant1[1],a
 307  00E8  0700     E  	mov a,rd
 307  00E9  0080     E  	mov _builtin_holtek_mant1[0],a
 307  00EA  3400     E  	clr _builtin_holtek_signs.0
 307  00EB              	fcall _builtin_holtek_uitod
 307  00F2  0700     E  	mov a,_builtin_holtek_mant12p[0]
 307  00F3  0080     E  	mov _sqrt_2[3],a
 307  00F4  0700     E  	mov a,_builtin_holtek_mant1[2]
 307  00F5  0080     E  	mov _sqrt_2[2],a
 307  00F6  0700     E  	mov a,_builtin_holtek_mant1[1]
 307  00F7  0080     E  	mov _sqrt_2[1],a
 307  00F8  0700     E  	mov a,_builtin_holtek_mant1[0]
 307  00F9  0080     E  	mov _sqrt_2[0],a
 307  00FA              	fcall _sqrt
 307  0101  0700     E  	mov a,rd
 307  0102  0080     E  	mov _builtin_holtek_mant12p[0],a
 307  0103  0700     E  	mov a,rc
 307  0104  0080     E  	mov _builtin_holtek_mant1[2],a
 307  0105  0700     E  	mov a,rb
 307  0106  0080     E  	mov _builtin_holtek_mant1[1],a
 307  0107  0700     E  	mov a,ra
 307  0108  0080     E  	mov _builtin_holtek_mant1[0],a
 307  0109              	fcall _builtin_holtek_dtol
 307  0110  0700     E  	mov a,_builtin_holtek_mant12p[0]
 307  0111  0080     E  	mov rg,a
 307  0112  0700     E  	mov a,_builtin_holtek_mant1[2]
 307  0113  0080     E  	mov rf,a
 307  0114  0700     E  	mov a,_builtin_holtek_mant1[1]
 307  0115  0080     E  	mov re,a
"File: Sevro_TM_button.c  Assembler  Version HGASM0202      Page 19

 307  0116  0700     E  	mov a,_builtin_holtek_mant1[0]
 307  0117  0080     E  	mov rd,a
 307  0118  0700     E  	mov a,rd
 307  0119  0080     R  	mov _SendX[0],a
 307  011A  0700     E  	mov a,re
 307  011B  0080     R  	mov _SendX[1],a
 307  011C  0003        	ret
 307  011D              _VariancePulsByLoad endp
 307  011D              #line 307 "D:\Users\IIIT\Desktop\DATATRAN\Sevro_TM_button.c"
 307  011D              #pragma debug scope 1 1
 307  011D              ___pcc equ [27]
 307  011D              ___wdtc equ [62]
 307  011D              ___pa equ [18]
 307  011D              public _main
 307  011D              #pragma debug scope 20 1
  70  011D              #line 70 "D:\Users\IIIT\Desktop\DATATRAN\Sevro_TM_button.c"
  70  011D              IFDEF WITH_DEFAULT_STARTUP
  70  011D              extern _main_initial0:near
  70  011D              extern _main_startup:near
  70  011D              ENDIF
  70  011D              
  70  011D              ROMBANK 0 @start
  70  0000              @start .section com_l 'code'
  70  0000              _main_startup1:
  70  0000              @start .section com_e 'code'
  70  0000  0F00     R  	mov a,bank _main
  70  0001  008B        	mov bp,a
  70  0002  2800     R  	jmp _main
  70  0003              
  70  0000              _main .section 'code'
  70  0000              _main proc
  71  0000              #line 71 "D:\Users\IIIT\Desktop\DATATRAN\Sevro_TM_button.c"
  71  0000  309A        	set [26].1
  71  0001  349B        	clr [27].1
  72  0002              #line 72 "D:\Users\IIIT\Desktop\DATATRAN\Sevro_TM_button.c"
  72  0002  0FAB        	mov a,171
  72  0003  00BE        	mov [62],a
  73  0004              #line 73 "D:\Users\IIIT\Desktop\DATATRAN\Sevro_TM_button.c"
  73  0004  0F03        	mov a,3
  73  0005  0080     R  	mov _Head[0],a
  74  0006              #line 74 "D:\Users\IIIT\Desktop\DATATRAN\Sevro_TM_button.c"
  74  0006  0F55        	mov a,85
  74  0007  0080     R  	mov _HallHead[0],a
  76  0008              #line 76 "D:\Users\IIIT\Desktop\DATATRAN\Sevro_TM_button.c"
  76  0008  0FAB        	mov a,171
  76  0009  00BE        	mov [62],a
  77  000A              #line 77 "D:\Users\IIIT\Desktop\DATATRAN\Sevro_TM_button.c"
  77  000A  0F01        	mov a,1
  77  000B  0080     R  	mov _AD10ms[0],a
  77  000C  1F00     R  	clr _Whell[0]
  77  000D  0F32        	mov a,50
  77  000E  0080     R  	mov _Whell100ms[0],a
  78  000F              #line 78 "D:\Users\IIIT\Desktop\DATATRAN\Sevro_TM_button.c"
  78  000F              	fcall _TM_Set
  79  0016              #line 79 "D:\Users\IIIT\Desktop\DATATRAN\Sevro_TM_button.c"
  79  0016              	fcall _Interrupt_Set
  80  001D              #line 80 "D:\Users\IIIT\Desktop\DATATRAN\Sevro_TM_button.c"
  80  001D              	fcall _Moto_Set
  81  0024              #line 81 "D:\Users\IIIT\Desktop\DATATRAN\Sevro_TM_button.c"
  81  0024              	fcall _AD_Set
"File: Sevro_TM_button.c  Assembler  Version HGASM0202      Page 20

  82  002B              #line 82 "D:\Users\IIIT\Desktop\DATATRAN\Sevro_TM_button.c"
  82  002B  3030        	set [48].0
  83  002C              #line 83 "D:\Users\IIIT\Desktop\DATATRAN\Sevro_TM_button.c"
  83  002C  0F00     R  	mov a,low offset _XArr
  83  002D  0080     R  	mov _PutValueArray_2[0],a
  83  002E  0F00     R  	mov a,high offset _XArr
  83  002F  0080     R  	mov _PutValueArray_2[1],a
  83  0030              	fcall _PutValueArray
  84  0037              #line 84 "D:\Users\IIIT\Desktop\DATATRAN\Sevro_TM_button.c"
  84  0037  0F6B        	mov a,107
  84  0038              	fcall _Moto_C
  85  003F              #line 85 "D:\Users\IIIT\Desktop\DATATRAN\Sevro_TM_button.c"
  85  003F  0F01        	mov a,1
  85  0040  0080     R  	mov _auto1[0],a
  85  0041  1F00     R  	clr _auto1[1]
  85  0042              _L44:
  88  0042              #line 88 "D:\Users\IIIT\Desktop\DATATRAN\Sevro_TM_button.c"
  88  0042              	fcall _AxisCal
  89  0049              #line 89 "D:\Users\IIIT\Desktop\DATATRAN\Sevro_TM_button.c"
  89  0049  0F00     R  	mov a,low offset _XArr
  89  004A  0080     R  	mov _ShiftRightArray_2[0],a
  89  004B  0F00     R  	mov a,high offset _XArr
  89  004C  0080     R  	mov _ShiftRightArray_2[1],a
  89  004D              	fcall _ShiftRightArray
  90  0054              #line 90 "D:\Users\IIIT\Desktop\DATATRAN\Sevro_TM_button.c"
  90  0054  0F02        	mov a,2
  90  0055  0080     E  	mov _qsort_2[4],a
  90  0056  1F00     E  	clr _qsort_2[5]
  90  0057  0F05        	mov a,5
  90  0058  0080     E  	mov _qsort_2[2],a
  90  0059  1F00     E  	clr _qsort_2[3]
  90  005A  0F00     R  	mov a,low offset _XArrSort
  90  005B  0080     E  	mov _qsort_2[0],a
  90  005C  0F00     R  	mov a,high offset _XArrSort
  90  005D  0080     E  	mov _qsort_2[1],a
  90  005E              	fcall _qsort
  91  0065              #line 91 "D:\Users\IIIT\Desktop\DATATRAN\Sevro_TM_button.c"
  91  0065  0F00     R  	mov a,low offset _XArrSort
  91  0066  0080     R  	mov _VariancePulsByLoad_2[0],a
  91  0067  0F00     R  	mov a,high offset _XArrSort
  91  0068  0080     R  	mov _VariancePulsByLoad_2[1],a
  91  0069              	fcall _VariancePulsByLoad
  92  0070              #line 92 "D:\Users\IIIT\Desktop\DATATRAN\Sevro_TM_button.c"
  92  0070              	fcall _TranAxis
  93  0077              #line 93 "D:\Users\IIIT\Desktop\DATATRAN\Sevro_TM_button.c"
  93  0077              ;# 93 "D:\Users\IIIT\Desktop\DATATRAN\Sevro_TM_button.c" 1
  93  0077  0000        	nop
  94  0078              #line 94 "D:\Users\IIIT\Desktop\DATATRAN\Sevro_TM_button.c"
  94  0078              	fcall _TranHall
  95  007F              #line 95 "D:\Users\IIIT\Desktop\DATATRAN\Sevro_TM_button.c"
  95  007F              ;# 95 "D:\Users\IIIT\Desktop\DATATRAN\Sevro_TM_button.c" 1
  95  007F  0000        	nop
  96  0080              #line 96 "D:\Users\IIIT\Desktop\DATATRAN\Sevro_TM_button.c"
  96  0080  3A12        	snz [18].4
  96  0081  2800     R  	jmp _L44
  98  0082              #line 98 "D:\Users\IIIT\Desktop\DATATRAN\Sevro_TM_button.c"
  98  0082  0F95        	mov a,149
  98  0083  0200     R  	sub a,_SendX[0]
  98  0084  0F00        	mov a,0
  98  0085  1200     R  	sbc a,_SendX[1]
"File: Sevro_TM_button.c  Assembler  Version HGASM0202      Page 21

  98  0086  3C0A        	sz c
  98  0087  2800     R  	jmp _L44
 100  0088              #line 100 "D:\Users\IIIT\Desktop\DATATRAN\Sevro_TM_button.c"
 100  0088  0F03        	mov a,3
 100  0089  0200     R  	sub a,_HallData[0]
 100  008A  380A        	snz c
 100  008B  2800     R  	jmp _L44
 102  008C              #line 102 "D:\Users\IIIT\Desktop\DATATRAN\Sevro_TM_button.c"
 102  008C  0F6B        	mov a,107
 102  008D              	fcall _Moto_C
 103  0094              #line 103 "D:\Users\IIIT\Desktop\DATATRAN\Sevro_TM_button.c"
 103  0094  0F64        	mov a,100
 103  0095              	fcall _delay_ms
 104  009C              #line 104 "D:\Users\IIIT\Desktop\DATATRAN\Sevro_TM_button.c"
 104  009C  0F87        	mov a,135
 104  009D              	fcall _Moto_C
 105  00A4              #line 105 "D:\Users\IIIT\Desktop\DATATRAN\Sevro_TM_button.c"
 105  00A4  0F64        	mov a,100
 105  00A5              	fcall _delay_ms
 105  00AC  2800     R  	jmp _L44
 105  00AD  2800     R  	jmp $
 105  00AE              _main endp
 105  00AE              
 105  00AE              @dummy endp
 105  00AE              
 105  00AE              #line 105 "D:\Users\IIIT\Desktop\DATATRAN\Sevro_TM_button.c"
 105  00AE              #pragma debug scope 1 1
 105  00AE              public _SendX
 105  0000              @HCCINIT	.section 'data'
  51  0000              #line 51 "D:\Users\IIIT\Desktop\DATATRAN\Sevro_TM_button.c"
  51  0000              @HCCINIT_SendX .section 'data'
  51  0000              _SendX label byte
  51  0000              #pragma debug variable 10 1 _SendX "SendX"
  51  0000              	db 0
  51  0000              @ROMDATA_BASE .section inpage 'code'
  51  0000              	db 0
  51  0001              @HCCINIT_SendX .section 'data'
  51  0001              	db 0
  51  0001              @ROMDATA_BASE .section inpage 'code'
  51  0001              	db 0
  51  0002              @HCCINIT_SendX .section 'data'
  50  0002              #line 50 "D:\Users\IIIT\Desktop\DATATRAN\Sevro_TM_button.c"
  50  0002              public _tempx
  50  0000              @HCCINIT0_tempx .section 'data'
  50  0000  0002[       _tempx	db 2 dup(0)
            00
            ]
  50  0002              #pragma debug variable 10 1 _tempx "tempx"
  50  0002              
  50  0000              @HCCINIT .section 'data'
  50  0000              #line 50 "D:\Users\IIIT\Desktop\DATATRAN\Sevro_TM_button.c"
  50  0000              public _XArrSort
  50  0000              @HCCINIT0_XArrSort .section 'data'
  50  0000  000A[       _XArrSort	db 10 dup(0)
            00
            ]
  50  000A              #pragma debug array 45 12 5 1
  50  000A              #pragma debug array 45 12 5 1
  50  000A              #pragma debug variable 45 1 _XArrSort "XArrSort"
  50  000A              
"File: Sevro_TM_button.c  Assembler  Version HGASM0202      Page 22

  50  0000              @HCCINIT .section 'data'
  49  0000              #line 49 "D:\Users\IIIT\Desktop\DATATRAN\Sevro_TM_button.c"
  49  0000              public _auto1
  49  0000              @HCCINIT0_auto1 .section 'data'
  49  0000  0002[       _auto1	db 2 dup(0)
            00
            ]
  49  0002              #pragma debug variable 9 1 _auto1 "auto1"
  49  0002              
  49  0000              @HCCINIT .section 'data'
  49  0000              #line 49 "D:\Users\IIIT\Desktop\DATATRAN\Sevro_TM_button.c"
  49  0000              public _Index
  49  0000              @HCCINIT0_Index .section 'data'
  49  0000  0002[       _Index	db 2 dup(0)
            00
            ]
  49  0002              #pragma debug variable 9 1 _Index "Index"
  49  0002              
  49  0000              @HCCINIT .section 'data'
  49  0000              #line 49 "D:\Users\IIIT\Desktop\DATATRAN\Sevro_TM_button.c"
  49  0000              public _temp
  49  0000              @HCCINIT0_temp .section 'data'
  49  0000  0002[       _temp	db 2 dup(0)
            00
            ]
  49  0002              #pragma debug variable 9 1 _temp "temp"
  49  0002              
  49  0000              @HCCINIT .section 'data'
  48  0000              #line 48 "D:\Users\IIIT\Desktop\DATATRAN\Sevro_TM_button.c"
  48  0000              public _i
  48  0000              @HCCINIT0_i .section 'data'
  48  0000              _i	db 0
  48  0001              #pragma debug variable 8 1 _i "i"
  48  0001              
  48  0000              @HCCINIT .section 'data'
  48  0000              #line 48 "D:\Users\IIIT\Desktop\DATATRAN\Sevro_TM_button.c"
  48  0000              public _Whell100ms
  48  0000              @HCCINIT0_Whell100ms .section 'data'
  48  0000              _Whell100ms	db 0
  48  0001              #pragma debug variable 8 1 _Whell100ms "Whell100ms"
  48  0001              
  48  0000              @HCCINIT .section 'data'
  48  0000              #line 48 "D:\Users\IIIT\Desktop\DATATRAN\Sevro_TM_button.c"
  48  0000              public _Whell
  48  0000              @HCCINIT0_Whell .section 'data'
  48  0000              _Whell	db 0
  48  0001              #pragma debug variable 8 1 _Whell "Whell"
  48  0001              
  48  0000              @HCCINIT .section 'data'
  48  0000              #line 48 "D:\Users\IIIT\Desktop\DATATRAN\Sevro_TM_button.c"
  48  0000              public _Hall200ms
  48  0000              @HCCINIT0_Hall200ms .section 'data'
  48  0000              _Hall200ms	db 0
  48  0001              #pragma debug variable 8 1 _Hall200ms "Hall200ms"
  48  0001              
  48  0000              @HCCINIT .section 'data'
  48  0000              #line 48 "D:\Users\IIIT\Desktop\DATATRAN\Sevro_TM_button.c"
  48  0000              public _AD10ms
  48  0000              @HCCINIT0_AD10ms .section 'data'
  48  0000              _AD10ms	db 0
"File: Sevro_TM_button.c  Assembler  Version HGASM0202      Page 23

  48  0001              #pragma debug variable 8 1 _AD10ms "AD10ms"
  48  0001              
  48  0000              @HCCINIT .section 'data'
  48  0000              #line 48 "D:\Users\IIIT\Desktop\DATATRAN\Sevro_TM_button.c"
  48  0000              public _R1sec
  48  0000              @HCCINIT0_R1sec .section 'data'
  48  0000              _R1sec	db 0
  48  0001              #pragma debug variable 8 1 _R1sec "R1sec"
  48  0001              
  48  0000              @HCCINIT .section 'data'
  48  0000              #line 48 "D:\Users\IIIT\Desktop\DATATRAN\Sevro_TM_button.c"
  48  0000              public _SEC
  48  0000              @HCCINIT0_SEC .section 'data'
  48  0000              _SEC	db 0
  48  0001              #pragma debug variable 8 1 _SEC "SEC"
  48  0001              
  48  0000              @HCCINIT .section 'data'
  48  0000              public _XArrAvg
  34  0000              #line 34 "D:\Users\IIIT\Desktop\DATATRAN\Sevro_TM_button.c"
  34  0000              @HCCINIT_XArrAvg .section 'data'
  34  0000              _XArrAvg label byte
  34  0000              #pragma debug variable 10 1 _XArrAvg "XArrAvg"
  34  0000              	db 0
  34  0001              @ROMDATA_BASE .section inpage 'code'
  34  0001              	db 0
  34  0001              @HCCINIT_XArrAvg .section 'data'
  34  0001              	db 0
  34  0002              @ROMDATA_BASE .section inpage 'code'
  34  0002              	db 0
  34  0002              @HCCINIT_XArrAvg .section 'data'
  34  0002              #line 34 "D:\Users\IIIT\Desktop\DATATRAN\Sevro_TM_button.c"
  34  0002              public _ADx
  34  0000              @HCCINIT0_ADx .section 'data'
  34  0000  0002[       _ADx	db 2 dup(0)
            00
            ]
  34  0002              #pragma debug variable 10 1 _ADx "ADx"
  34  0002              
  34  0000              @HCCINIT .section 'data'
  34  0000              #line 34 "D:\Users\IIIT\Desktop\DATATRAN\Sevro_TM_button.c"
  34  0000              public _XArr
  34  0000              @HCCINIT0_XArr .section 'data'
  34  0000  000A[       _XArr	db 10 dup(0)
            00
            ]
  34  000A              #pragma debug variable 45 1 _XArr "XArr"
  34  000A              
  34  0000              @HCCINIT .section 'data'
  34  0000              public _HallCount
  33  0000              #line 33 "D:\Users\IIIT\Desktop\DATATRAN\Sevro_TM_button.c"
  33  0000              @HCCINIT_HallCount .section 'data'
  33  0000              _HallCount label byte
  33  0000              #pragma debug variable 8 1 _HallCount "HallCount"
  33  0000              	db 0
  33  0002              @ROMDATA_BASE .section inpage 'code'
  33  0002              	db 0
  33  0001              @HCCINIT_HallCount .section 'data'
  33  0001              public _HallData
  32  0001              #line 32 "D:\Users\IIIT\Desktop\DATATRAN\Sevro_TM_button.c"
  32  0000              @HCCINIT_HallData .section 'data'
"File: Sevro_TM_button.c  Assembler  Version HGASM0202      Page 24

  32  0000              _HallData label byte
  32  0000              #pragma debug variable 8 1 _HallData "HallData"
  32  0000              	db 0
  32  0003              @ROMDATA_BASE .section inpage 'code'
  32  0003              	db 0
  32  0001              @HCCINIT_HallData .section 'data'
  31  0001              #line 31 "D:\Users\IIIT\Desktop\DATATRAN\Sevro_TM_button.c"
  31  0001              public _HallSUM
  31  0000              @HCCINIT0_HallSUM .section 'data'
  31  0000              _HallSUM	db 0
  31  0001              #pragma debug variable 8 1 _HallSUM "HallSUM"
  31  0001              
  31  0000              @HCCINIT .section 'data'
  31  0000              #line 31 "D:\Users\IIIT\Desktop\DATATRAN\Sevro_TM_button.c"
  31  0000              public _HallCRC
  31  0000              @HCCINIT0_HallCRC .section 'data'
  31  0000              _HallCRC	db 0
  31  0001              #pragma debug variable 8 1 _HallCRC "HallCRC"
  31  0001              
  31  0000              @HCCINIT .section 'data'
  30  0000              #line 30 "D:\Users\IIIT\Desktop\DATATRAN\Sevro_TM_button.c"
  30  0000              public _AXSUM
  30  0000              @HCCINIT0_AXSUM .section 'data'
  30  0000              _AXSUM	db 0
  30  0001              #pragma debug variable 8 1 _AXSUM "AXSUM"
  30  0001              
  30  0000              @HCCINIT .section 'data'
  30  0000              #line 30 "D:\Users\IIIT\Desktop\DATATRAN\Sevro_TM_button.c"
  30  0000              public _AXCRC
  30  0000              @HCCINIT0_AXCRC .section 'data'
  30  0000              _AXCRC	db 0
  30  0001              #pragma debug variable 8 1 _AXCRC "AXCRC"
  30  0001              
  30  0000              @HCCINIT .section 'data'
  30  0000              public _Hacount
  28  0000              #line 28 "D:\Users\IIIT\Desktop\DATATRAN\Sevro_TM_button.c"
  28  0000              @HCCINIT_Hacount .section 'data'
  28  0000              _Hacount label byte
  28  0000              #pragma debug variable 8 1 _Hacount "Hacount"
  28  0000              	db 0
  28  0003              @ROMDATA_BASE .section inpage 'code'
  28  0003              	db 0
  28  0001              @HCCINIT_Hacount .section 'data'
  28  0001              public _Axcount
  27  0001              #line 27 "D:\Users\IIIT\Desktop\DATATRAN\Sevro_TM_button.c"
  27  0000              @HCCINIT_Axcount .section 'data'
  27  0000              _Axcount label byte
  27  0000              #pragma debug variable 8 1 _Axcount "Axcount"
  27  0000              	db 0
  27  0004              @ROMDATA_BASE .section inpage 'code'
  27  0004              	db 0
  27  0001              @HCCINIT_Axcount .section 'data'
  26  0001              #line 26 "D:\Users\IIIT\Desktop\DATATRAN\Sevro_TM_button.c"
  26  0001              public _HallHead
  26  0000              @HCCINIT0_HallHead .section 'data'
  26  0000              _HallHead	db 0
  26  0001              #pragma debug variable 8 1 _HallHead "HallHead"
  26  0001              
  26  0000              @HCCINIT .section 'data'
  25  0000              #line 25 "D:\Users\IIIT\Desktop\DATATRAN\Sevro_TM_button.c"
"File: Sevro_TM_button.c  Assembler  Version HGASM0202      Page 25

  25  0000              public _Head
  25  0000              @HCCINIT0_Head .section 'data'
  25  0000              _Head	db 0
  25  0001              #pragma debug variable 8 1 _Head "Head"
  25  0001              
  25  0000              @HCCINIT .section 'data'
  24  0000              #line 24 "D:\Users\IIIT\Desktop\DATATRAN\Sevro_TM_button.c"
  24  0000              public _AxisX
  24  0000              @HCCINIT0_AxisX .section 'data'
  24  0000  0002[       _AxisX	db 2 dup(0)
            00
            ]
  24  0002              #pragma debug variable 10 1 _AxisX "AxisX"
  24  0002              
  24  0000              @HCCINIT .section 'data'
  23  0000              #line 23 "D:\Users\IIIT\Desktop\DATATRAN\Sevro_TM_button.c"
  23  0000              public _SendXL
  23  0000              @HCCINIT0_SendXL .section 'data'
  23  0000              _SendXL	db 0
  23  0001              #pragma debug variable 8 1 _SendXL "SendXL"
  23  0001              
  23  0000              @HCCINIT .section 'data'
  22  0000              #line 22 "D:\Users\IIIT\Desktop\DATATRAN\Sevro_TM_button.c"
  22  0000              public _SendXH
  22  0000              @HCCINIT0_SendXH .section 'data'
  22  0000              _SendXH	db 0
  22  0001              #pragma debug variable 8 1 _SendXH "SendXH"
  22  0001              
  22  0000              @HCCINIT .section 'data'
  21  0000              #line 21 "D:\Users\IIIT\Desktop\DATATRAN\Sevro_TM_button.c"
  21  0000              public _AxisXL
  21  0000              @HCCINIT0_AxisXL .section 'data'
  21  0000              _AxisXL	db 0
  21  0001              #pragma debug variable 8 1 _AxisXL "AxisXL"
  21  0001              
  21  0000              @HCCINIT .section 'data'
  20  0000              #line 20 "D:\Users\IIIT\Desktop\DATATRAN\Sevro_TM_button.c"
  20  0000              public _AxisXH
  20  0000              @HCCINIT0_AxisXH .section 'data'
  20  0000              _AxisXH	db 0
  20  0001              #pragma debug variable 8 1 _AxisXH "AxisXH"
  20  0001              
  20  0000              @HCCINIT .section 'data'
  20  0000              #pragma debug struct_end
  20  0000              #pragma debug struct_end
  20  0000              #pragma debug union_end
  20  0000              #pragma debug union_end
  20  0000              #pragma debug variable 47 1 ___papu "__papu" 1
  20  0000              #pragma debug struct_end
  20  0000              #pragma debug struct_end
  20  0000              #pragma debug union_end
  20  0000              #pragma debug union_end
  20  0000              #pragma debug variable 49 1 ___pa "__pa" 1
  20  0000              #pragma debug struct_end
  20  0000              #pragma debug struct_end
  20  0000              #pragma debug union_end
  20  0000              #pragma debug union_end
  20  0000              #pragma debug variable 51 1 ___pac "__pac" 1
  20  0000              #pragma debug struct_end
  20  0000              #pragma debug struct_end
"File: Sevro_TM_button.c  Assembler  Version HGASM0202      Page 26

  20  0000              #pragma debug union_end
  20  0000              #pragma debug union_end
  20  0000              #pragma debug variable 53 1 ___pc "__pc" 1
  20  0000              #pragma debug struct_end
  20  0000              #pragma debug struct_end
  20  0000              #pragma debug union_end
  20  0000              #pragma debug union_end
  20  0000              #pragma debug variable 55 1 ___pcc "__pcc" 1
  20  0000              #pragma debug struct_end
  20  0000              #pragma debug struct_end
  20  0000              #pragma debug union_end
  20  0000              #pragma debug union_end
  20  0000              #pragma debug variable 57 1 ___pepu "__pepu" 1
  20  0000              #pragma debug struct_end
  20  0000              #pragma debug struct_end
  20  0000              #pragma debug union_end
  20  0000              #pragma debug union_end
  20  0000              #pragma debug variable 59 1 ___pec "__pec" 1
  20  0000              #pragma debug struct_end
  20  0000              #pragma debug struct_end
  20  0000              #pragma debug union_end
  20  0000              #pragma debug union_end
  20  0000              #pragma debug variable 61 1 ___intc0 "__intc0" 1
  20  0000              #pragma debug struct_end
  20  0000              #pragma debug struct_end
  20  0000              #pragma debug union_end
  20  0000              #pragma debug union_end
  20  0000              #pragma debug variable 63 1 ___intc3 "__intc3" 1
  20  0000              #pragma debug struct_end
  20  0000              #pragma debug struct_end
  20  0000              #pragma debug union_end
  20  0000              #pragma debug union_end
  20  0000              #pragma debug variable 65 1 ___mfi0 "__mfi0" 1
  20  0000              #pragma debug struct_end
  20  0000              #pragma debug struct_end
  20  0000              #pragma debug union_end
  20  0000              #pragma debug union_end
  20  0000              #pragma debug variable 67 1 ___mfi4 "__mfi4" 1
  20  0000              #pragma debug struct_end
  20  0000              #pragma debug struct_end
  20  0000              #pragma debug union_end
  20  0000              #pragma debug union_end
  20  0000              #pragma debug variable 69 1 ___integ "__integ" 1
  20  0000              #pragma debug struct_end
  20  0000              #pragma debug struct_end
  20  0000              #pragma debug union_end
  20  0000              #pragma debug union_end
  20  0000              #pragma debug variable 71 1 ___wdtc "__wdtc" 1
  20  0000              #pragma debug struct_end
  20  0000              #pragma debug struct_end
  20  0000              #pragma debug union_end
  20  0000              #pragma debug union_end
  20  0000              #pragma debug variable 73 1 ___tm2c0 "__tm2c0" 1
  20  0000              #pragma debug struct_end
  20  0000              #pragma debug struct_end
  20  0000              #pragma debug union_end
  20  0000              #pragma debug union_end
  20  0000              #pragma debug variable 75 1 ___tm2c1 "__tm2c1" 1
  20  0000              #pragma debug variable 8 1 ___tm2al "__tm2al" 1
  20  0000              #pragma debug variable 8 1 ___tm2ah "__tm2ah" 1
"File: Sevro_TM_button.c  Assembler  Version HGASM0202      Page 27

  20  0000              #pragma debug variable 8 1 ___tm2rp "__tm2rp" 1
  20  0000              #pragma debug struct_end
  20  0000              #pragma debug struct_end
  20  0000              #pragma debug union_end
  20  0000              #pragma debug union_end
  20  0000              #pragma debug variable 77 1 ___tm0c0 "__tm0c0" 1
  20  0000              #pragma debug struct_end
  20  0000              #pragma debug struct_end
  20  0000              #pragma debug union_end
  20  0000              #pragma debug union_end
  20  0000              #pragma debug variable 79 1 ___tm0c1 "__tm0c1" 1
  20  0000              #pragma debug variable 8 1 ___tm0al "__tm0al" 1
  20  0000              #pragma debug variable 8 1 ___tm0ah "__tm0ah" 1
  20  0000              #pragma debug struct_end
  20  0000              #pragma debug struct_end
  20  0000              #pragma debug union_end
  20  0000              #pragma debug union_end
  20  0000              #pragma debug variable 81 1 ___adcr0 "__adcr0" 1
  20  0000              #pragma debug struct_end
  20  0000              #pragma debug struct_end
  20  0000              #pragma debug union_end
  20  0000              #pragma debug union_end
  20  0000              #pragma debug variable 83 1 ___adcr1 "__adcr1" 1
  20  0000              #pragma debug variable 8 1 ___adrl "__adrl" 1
  20  0000              #pragma debug variable 8 1 ___adrh "__adrh" 1
  20  0000              #pragma debug struct_end
  20  0000              #pragma debug struct_end
  20  0000              #pragma debug union_end
  20  0000              #pragma debug union_end
  20  0000              #pragma debug variable 85 1 ___ifs0 "__ifs0" 1
  20  0000              #pragma debug struct_end
  20  0000              #pragma debug struct_end
  20  0000              #pragma debug union_end
  20  0000              #pragma debug union_end
  20  0000              #pragma debug variable 87 1 ___tm4c0 "__tm4c0" 1
  20  0000              #pragma debug struct_end
  20  0000              #pragma debug struct_end
  20  0000              #pragma debug union_end
  20  0000              #pragma debug union_end
  20  0000              #pragma debug variable 89 1 ___tm4c1 "__tm4c1" 1
  20  0000              #pragma debug variable 8 1 ___tm4al "__tm4al" 1
  20  0000              #pragma debug variable 8 1 ___tm4ah "__tm4ah" 1
  20  0000              #pragma debug struct_end
  20  0000              #pragma debug struct_end
  20  0000              #pragma debug union_end
  20  0000              #pragma debug union_end
  20  0000              #pragma debug variable 91 1 ___pas0 "__pas0" 1
  20  0000              #pragma debug struct_end
  20  0000              #pragma debug struct_end
  20  0000              #pragma debug union_end
  20  0000              #pragma debug union_end
  20  0000              #pragma debug variable 93 1 ___pas3 "__pas3" 1
  20  0000              #pragma debug struct_end
  20  0000              #pragma debug struct_end
  20  0000              #pragma debug union_end
  20  0000              #pragma debug union_end
  20  0000              #pragma debug variable 95 1 ___pds2 "__pds2" 1
  20  0000              extern r1:byte
  20  0000              extern r2:byte
  20  0000              extern r3:byte
"File: Sevro_TM_button.c  Assembler  Version HGASM0202      Page 28

  70  0000              #line 70 "D:\Users\IIIT\Desktop\DATATRAN\Sevro_TM_button.c"
  70  0000              @code .section at 0 'code'
  70  0000  1F0B        	clr bp
  70  0001  2800     R  	jmp _main_startup1
  70  0002              
  70  0002              extern _builtin_holtek_mulhi3_2:byte
  70  0002              extern _builtin_holtek_mulhi3:near
  70  0002              extern _builtin_holtek_mant1:byte
  70  0002              extern _builtin_holtek_mant12p:byte
  70  0002              extern _builtin_holtek_signs:byte
  70  0002              extern _builtin_holtek_uitod:near
  70  0002              extern _pow_2:byte
  70  0002              extern _pow:near
  70  0002              extern _builtin_holtek_dtol:near
  70  0002              extern _sqrt_2:byte
  70  0002              extern _sqrt:near
  70  0002              extern _qsort_2:byte
  70  0002              extern _qsort:near
  70  0002              
  70  0002              ; 
  70  0002              ; Generated by holtek-gcc v3.18, Tue Nov 13 00:25:42 2018
  70  0002              ; Rebuild 521
  70  0002              ; end of file


        0 Errors, 0