"File: SourceCode.c  Assembler  Version HGASM0202      Page 1


   1  0000              ; Generated by holtek-gcc v3.13, Thu Jul 19 23:00:26 2018
   2  0000              ; 
   3  0000              ; Configuration:
   4  0000              ;       with long instruction
   5  0000              ;       Multi-ROM, Multi-RAM
   6  0000              ;       bits_per_rom_unit:16
   7  0000              ;       with mp1
   8  0000              ;       with tbhp, address(0x9)
   9  0000              ;          Use tabrd-const
  10  0000              ;       
  11  0000              ; SFR address of long-instruction arch:
  12  0000              ;    mp0 = -1,1,0
  13  0000              ;    mp1 = 4,3,2
  14  0000              ;    mp2 = 14,13,12
  15  0000              ;    tbp = 9,7,8
  16  0000              ;    acc = 5
  17  0000              ;    pcl = 6
  18  0000              ;    status = 10
  19  0000              ;    bp = 11
  20  0000              ;    intc = 48
  21  0000              ;       
  22  0000              ; use 'tabrdc' instead of 'tabrd'
  23  0000              ;       
  24  0000              
  25  0000              #pragma translator "holtek-gcc 4.6.4" "3.13" "build 20130711"
  26  0000              ; Rebuild 26
  27  0000              
  28  0000              ir equ [2]
  29  0000              mp equ [3]
  30  0000              sbp equ [4]
  31  0000              acc equ [5]
  32  0000              bp equ [11]
  33  0000              tblp equ [7]
  34  0000              tbhp equ [9]
  35  0000              status equ [10]
  36  0000              c equ [10].0
  37  0000              ac equ [10].1
  38  0000              z equ [10].2
  39  0000              ov equ [10].3
  40  0000              cz equ [10].6
  41  0000              sc equ [10].7
  42  0000              intc equ [48]
  43  0000              
  44  0000              extern ra:byte
  45  0000              extern rb:byte
  46  0000              extern rc:byte
  47  0000              extern rd:byte
  48  0000              extern re:byte
  49  0000              extern rf:byte
  50  0000              extern rg:byte
  51  0000              extern rh:byte
  52  0000              extern _Crom2Prom:near
  53  0000              extern _Crom2PromNext:near
  54  0000              @HCCINIT	.section 'data'
  55  0000              @HCCINIT0	.section 'data'
  56  0000              
  57  0000              #pragma debug scope 1 1
  58  0000              	extern __DELAY3:near
  59  0000              	extern __DELAYX3:near
"File: SourceCode.ASM  Assembler  Version HGASM0202      Page 2

  60  0000              	extern __DELAYX6:near
  61  0000              	extern __DELAYY5:near
  62  0000              	extern __DELAYY3:near
  63  0000              	extern _builtin_holtek_delay_2:byte
  64  0000              ___wdtc equ [62]
  65  0000              ___cp0c equ [70]
  66  0000              ___cp1c equ [71]
  67  0000              ___scomc equ [127]
  68  0000              ___smod equ [58]
  69  0000              ___ifs4 equ [332]
  70  0000              ___simc0 equ [108]
  71  0000              ___simc2 equ [111]
  72  0000              ___pac equ [19]
  73  0000              ___pbc equ [23]
  74  0000              ___phc equ [47]
  75  0000              ___papu equ [17]
  76  0000              ___pbpu equ [21]
  77  0000              ___pa equ [18]
  78  0000              ___pb equ [22]
  79  0000              ___pgc equ [43]
  80  0000              public _PinSet
  81  0000              #pragma debug scope 2 1

  77  0000              #line 77 "D:\IIIT\Documents\HTK_Project\Triaxial_sensor\SourceCode.c"
  77  0000              _PinSet .section 'code'
  77  0000              _PinSet proc
  78  0000              #line 78 "D:\IIIT\Documents\HTK_Project\Triaxial_sensor\SourceCode.c"
  78  0000  0FA8        	mov a,168
  78  0001  00BE        	mov [62],a
  79  0002              #line 79 "D:\IIIT\Documents\HTK_Project\Triaxial_sensor\SourceCode.c"
  79  0002  1F46        	clr [70]
  80  0003              #line 80 "D:\IIIT\Documents\HTK_Project\Triaxial_sensor\SourceCode.c"
  80  0003  1F47        	clr [71]
  81  0004              #line 81 "D:\IIIT\Documents\HTK_Project\Triaxial_sensor\SourceCode.c"
  81  0004  367F        	clr [127].4
  82  0005              #line 82 "D:\IIIT\Documents\HTK_Project\Triaxial_sensor\SourceCode.c"
  82  0005  0FE0        	mov a,224
  82  0006  00BA        	mov [58],a
  83  0007              #line 83 "D:\IIIT\Documents\HTK_Project\Triaxial_sensor\SourceCode.c"
  83  0007  B64C 0001   	lclr [332].4
  84  0009              #line 84 "D:\IIIT\Documents\HTK_Project\Triaxial_sensor\SourceCode.c"
  84  0009  B6CC 0001   	lclr [332].5
  85  000B              #line 85 "D:\IIIT\Documents\HTK_Project\Triaxial_sensor\SourceCode.c"
  85  000B  30EC        	set [108].1
  86  000C              #line 86 "D:\IIIT\Documents\HTK_Project\Triaxial_sensor\SourceCode.c"
  86  000C  0F42        	mov a,66
  86  000D  00EC        	mov [108],a
  87  000E              #line 87 "D:\IIIT\Documents\HTK_Project\Triaxial_sensor\SourceCode.c"
  87  000E  0F24        	mov a,36
  87  000F  00EF        	mov [111],a
  94  0010              #line 94 "D:\IIIT\Documents\HTK_Project\Triaxial_sensor\SourceCode.c"
  94  0010  9F4C 0001   	lclr [332]
  96  0012              #line 96 "D:\IIIT\Documents\HTK_Project\Triaxial_sensor\SourceCode.c"
  96  0012  3693        	clr [19].5
  96  0013  3313        	set [19].6
  96  0014  3793        	clr [19].7
  96  0015  3697        	clr [23].5
  97  0016              #line 97 "D:\IIIT\Documents\HTK_Project\Triaxial_sensor\SourceCode.c"
  97  0016  342F        	clr [47].0
  97  0017  34AF        	clr [47].1
"File: SourceCode.c  Assembler  Version HGASM0202      Page 3

  97  0018  352F        	clr [47].2
  98  0019              #line 98 "D:\IIIT\Documents\HTK_Project\Triaxial_sensor\SourceCode.c"
  98  0019  3311        	set [17].6
  98  001A  3291        	set [17].5
  98  001B  3391        	set [17].7
  98  001C  3295        	set [21].5
  98  001D  3792        	clr [18].7
  98  001E  3296        	set [22].5
  98  001F  1F2B        	clr [43]
  98  0020  0003        	ret
  98  0021              _PinSet endp
  98  0021              #line 98 "D:\IIIT\Documents\HTK_Project\Triaxial_sensor\SourceCode.c"
  98  0021              #pragma debug scope 1 1
  98  0021              public _Delay100us
  98  0021              #pragma debug scope 3 1
 168  0021              #line 168 "D:\IIIT\Documents\HTK_Project\Triaxial_sensor\SourceCode.c"
 168  0000              _Delay100us .section 'code'
 168  0000              _Delay100us proc
 168  0000              public _Delay100us_2
 168  0000  0002[           local _Delay100us_2 db 2 dup(?)	; 2,0
            00
            ]
 168  0002              #pragma debug variable 9 3 _Delay100us_2+0 "del"
 169  0000              #line 169 "D:\IIIT\Documents\HTK_Project\Triaxial_sensor\SourceCode.c"
 169  0000  1F00     E  	clr rb
 169  0001  1F00     E  	clr rc
 169  0002              _L3:
 169  0002              #line 169 "D:\IIIT\Documents\HTK_Project\Triaxial_sensor\SourceCode.c"
 169  0002  0700     E  	mov a,rb
 169  0003  0200     R  	sub a,_Delay100us_2[0]
 169  0004  0700     E  	mov a,rc
 169  0005  1200     R  	sbc a,_Delay100us_2[1]
 169  0006  3B8A        	snz sc
 169  0007  2800     R  	jmp _L2
 169  0008  1F00     E  	clr ra
 169  0009              _L6:
 170  0009              #line 170 "D:\IIIT\Documents\HTK_Project\Triaxial_sensor\SourceCode.c"
 170  0009              ;# 170 "D:\IIIT\Documents\HTK_Project\Triaxial_sensor\SourceCode.c" 1
 170  0009  0000        	nop
 170  000A  1480     E  	inc ra
 170  000B  0700     E  	mov a,ra
 170  000C  0A1A        	sub a,26
 170  000D  390A        	snz z
 170  000E  2800     R  	jmp _L6
 169  000F              #line 169 "D:\IIIT\Documents\HTK_Project\Triaxial_sensor\SourceCode.c"
 169  000F  1480     E  	inc rb
 169  0010  3D0A        	sz z
 169  0011  1480     E  	inc rc
 169  0012  2800     R  	jmp _L3
 169  0013              _L2:
 169  0013  0003        	ret
 169  0014              _Delay100us endp
 169  0014              #line 169 "D:\IIIT\Documents\HTK_Project\Triaxial_sensor\SourceCode.c"
 169  0014              #pragma debug scope 1 1
 169  0014              public __SPI_CS
 169  0014              #pragma debug scope 4 1
 177  0014              #line 177 "D:\IIIT\Documents\HTK_Project\Triaxial_sensor\SourceCode.c"
 177  0000              __SPI_CS .section 'code'
 177  0000              __SPI_CS proc
 177  0000              public __SPI_CS_2
"File: SourceCode.c  Assembler  Version HGASM0202      Page 4

 177  0000  0002[           local __SPI_CS_2 db 2 dup(?)	; 2,0
            00
            ]
 177  0002              #pragma debug variable 10 4 __SPI_CS_2+0 "isSelect"
 178  0000              #line 178 "D:\IIIT\Documents\HTK_Project\Triaxial_sensor\SourceCode.c"
 178  0000  0700     R  	mov a,__SPI_CS_2[0]
 178  0001  0E01        	and a,1
 178  0002  0080     E  	mov ra,a
 178  0003  1100     E  	swapa ra
 178  0004  1885        	rl acc
 178  0005  0EE0        	and a,0e0h
 178  0006  0080     E  	mov ra,a
 178  0007  3696        	clr [22].5
 178  0008  0700     E  	mov a,ra
 178  0009  0596        	orm a,[22]
 179  000A              #line 179 "D:\IIIT\Documents\HTK_Project\Triaxial_sensor\SourceCode.c"
 179  000A              ;# 179 "D:\IIIT\Documents\HTK_Project\Triaxial_sensor\SourceCode.c" 1
 179  000A  0000        	nop
 179  000B  0003        	ret
 179  000C              __SPI_CS endp
 179  000C              #line 179 "D:\IIIT\Documents\HTK_Project\Triaxial_sensor\SourceCode.c"
 179  000C              #pragma debug scope 1 1
 179  000C              public __SPI_SCL
 179  000C              #pragma debug scope 5 1
 186  000C              #line 186 "D:\IIIT\Documents\HTK_Project\Triaxial_sensor\SourceCode.c"
 186  0000              __SPI_SCL .section 'code'
 186  0000              __SPI_SCL proc
 186  0000              public __SPI_SCL_2
 186  0000  0002[           local __SPI_SCL_2 db 2 dup(?)	; 2,0
            00
            ]
 186  0002              #pragma debug variable 10 5 __SPI_SCL_2+0 "bLevel"
 187  0000              #line 187 "D:\IIIT\Documents\HTK_Project\Triaxial_sensor\SourceCode.c"
 187  0000  0700     R  	mov a,__SPI_SCL_2[0]
 187  0001  0080     E  	mov ra,a
 187  0002  1B80     E  	rrc ra
 187  0003  1F00     E  	clr ra
 187  0004  1B80     E  	rrc ra
 187  0005  3792        	clr [18].7
 187  0006  0700     E  	mov a,ra
 187  0007  0592        	orm a,[18]
 188  0008              #line 188 "D:\IIIT\Documents\HTK_Project\Triaxial_sensor\SourceCode.c"
 188  0008              ;# 188 "D:\IIIT\Documents\HTK_Project\Triaxial_sensor\SourceCode.c" 1
 188  0008  0000        	nop
 188  0009  0003        	ret
 188  000A              __SPI_SCL endp
 188  000A              #line 188 "D:\IIIT\Documents\HTK_Project\Triaxial_sensor\SourceCode.c"
 188  000A              #pragma debug scope 1 1
 188  000A              public _ADXL345_SPI_Read
 188  000A              #pragma debug scope 6 1
 106  000A              #line 106 "D:\IIIT\Documents\HTK_Project\Triaxial_sensor\SourceCode.c"
 106  0000              _ADXL345_SPI_Read .section 'code'
 106  0000              _ADXL345_SPI_Read proc
 106  0000  0005[           local _ADXL345_SPI_Read_2 db 5 dup(?)	; 0,5
            00
            ]
 106  0000  0080     R  	mov _ADXL345_SPI_Read_2[0],a
 106  0001              #pragma debug variable 8 6 _ADXL345_SPI_Read_2+0 "Address"
 106  0001              #pragma debug variable 8 6 _ADXL345_SPI_Read_2+4 "ReadData"
 111  0001              #line 111 "D:\IIIT\Documents\HTK_Project\Triaxial_sensor\SourceCode.c"
"File: SourceCode.c  Assembler  Version HGASM0202      Page 5

 111  0001  1F00     R  	clr __SPI_CS_2[0]
 111  0002  1F00     R  	clr __SPI_CS_2[1]
 111  0003              	fcall __SPI_CS
 112  000A              #line 112 "D:\IIIT\Documents\HTK_Project\Triaxial_sensor\SourceCode.c"
 112  000A              ;# 112 "D:\IIIT\Documents\HTK_Project\Triaxial_sensor\SourceCode.c" 1
 112  000A  0000        	nop
 112  000B  0F08        	mov a,8
 112  000C  0080     R  	mov _ADXL345_SPI_Read_2[1],a
 114  000D              #line 114 "D:\IIIT\Documents\HTK_Project\Triaxial_sensor\SourceCode.c"
 114  000D  0F07        	mov a,7
 114  000E  0080     R  	mov _ADXL345_SPI_Read_2[2],a
 114  000F              _L12:
 117  000F              #line 117 "D:\IIIT\Documents\HTK_Project\Triaxial_sensor\SourceCode.c"
 117  000F  0F01        	mov a,1
 117  0010  0080     R  	mov __SPI_SCL_2[0],a
 117  0011  1F00     R  	clr __SPI_SCL_2[1]
 117  0012              	fcall __SPI_SCL
 118  0019              #line 118 "D:\IIIT\Documents\HTK_Project\Triaxial_sensor\SourceCode.c"
 118  0019  0700     R  	mov a,_ADXL345_SPI_Read_2[0]
 118  001A  0080     E  	mov rb,a
 118  001B  3000     E  	set rb.7
 118  001C  1F00     E  	clr rc
 118  001D  1400     R  	inca _ADXL345_SPI_Read_2[2]
 118  001E  2800     R  	jmp _LI1
 118  001F              _LI2:
 118  001F  340A        	clr c
 118  0020  3C00     E  	sz rc.7
 118  0021  300A        	set c
 118  0022  1B80     E  	rrc rc
 118  0023  1B80     E  	rrc rb
 118  0024              _LI1:
 118  0024  1785        	sdz acc
 118  0025  2800     R  	jmp _LI2
 118  0026  0F01        	mov a,1
 118  0027  0680     E  	andm a,rb
 118  0028  1100     E  	swapa rb
 118  0029  1885        	rl acc
 118  002A  0EE0        	and a,0e0h
 118  002B  0080     E  	mov rb,a
 118  002C  3692        	clr [18].5
 118  002D  0700     E  	mov a,rb
 118  002E  0592        	orm a,[18]
 119  002F              #line 119 "D:\IIIT\Documents\HTK_Project\Triaxial_sensor\SourceCode.c"
 119  002F              ;# 119 "D:\IIIT\Documents\HTK_Project\Triaxial_sensor\SourceCode.c" 1
 119  002F  0000        	nop
 120  0030              #line 120 "D:\IIIT\Documents\HTK_Project\Triaxial_sensor\SourceCode.c"
 120  0030  1F00     R  	clr __SPI_SCL_2[0]
 120  0031  1F00     R  	clr __SPI_SCL_2[1]
 120  0032              	fcall __SPI_SCL
 121  0039              #line 121 "D:\IIIT\Documents\HTK_Project\Triaxial_sensor\SourceCode.c"
 121  0039              ;# 121 "D:\IIIT\Documents\HTK_Project\Triaxial_sensor\SourceCode.c" 1
 121  0039  0000        	nop
 114  003A              #line 114 "D:\IIIT\Documents\HTK_Project\Triaxial_sensor\SourceCode.c"
 114  003A  1580     R  	dec _ADXL345_SPI_Read_2[2]
 114  003B  1780     R  	sdz _ADXL345_SPI_Read_2[1]
 114  003C  2800     R  	jmp _L12
 125  003D              #line 125 "D:\IIIT\Documents\HTK_Project\Triaxial_sensor\SourceCode.c"
 125  003D  0F01        	mov a,1
 125  003E  0080     R  	mov __SPI_SCL_2[0],a
 125  003F  1F00     R  	clr __SPI_SCL_2[1]
"File: SourceCode.c  Assembler  Version HGASM0202      Page 6

 125  0040              	fcall __SPI_SCL
 125  0047  0F08        	mov a,8
 125  0048  0080     R  	mov _ADXL345_SPI_Read_2[1],a
 128  0049              #line 128 "D:\IIIT\Documents\HTK_Project\Triaxial_sensor\SourceCode.c"
 128  0049  0F07        	mov a,7
 128  004A  0080     R  	mov _ADXL345_SPI_Read_2[2],a
 107  004B              #line 107 "D:\IIIT\Documents\HTK_Project\Triaxial_sensor\SourceCode.c"
 107  004B  1F00     R  	clr _ADXL345_SPI_Read_2[4]
 107  004C              _L14:
 131  004C              #line 131 "D:\IIIT\Documents\HTK_Project\Triaxial_sensor\SourceCode.c"
 131  004C  1F00     R  	clr __SPI_SCL_2[0]
 131  004D  1F00     R  	clr __SPI_SCL_2[1]
 131  004E              	fcall __SPI_SCL
 132  0055              #line 132 "D:\IIIT\Documents\HTK_Project\Triaxial_sensor\SourceCode.c"
 132  0055  0F01        	mov a,1
 132  0056  0080     R  	mov __SPI_SCL_2[0],a
 132  0057  1F00     R  	clr __SPI_SCL_2[1]
 132  0058              	fcall __SPI_SCL
 133  005F              #line 133 "D:\IIIT\Documents\HTK_Project\Triaxial_sensor\SourceCode.c"
 133  005F  1F00     E  	clr rb
 133  0060  3F12        	sz [18].6
 133  0061  1480     E  	inc rb
 135  0062              #line 135 "D:\IIIT\Documents\HTK_Project\Triaxial_sensor\SourceCode.c"
 135  0062  1F00     E  	clr rc
 135  0063  1400     R  	inca _ADXL345_SPI_Read_2[2]
 135  0064  2800     R  	jmp _LI3
 135  0065              _LI4:
 135  0065  340A        	clr c
 135  0066  1A80     E  	rlc rb
 135  0067  1A80     E  	rlc rc
 135  0068              _LI3:
 135  0068  1785        	sdz acc
 135  0069  2800     R  	jmp _LI4
 135  006A  0700     R  	mov a,_ADXL345_SPI_Read_2[4]
 135  006B  0500     E  	or a,rb
 135  006C  0080     R  	mov _ADXL345_SPI_Read_2[3],a
 135  006D  0700     R  	mov a,_ADXL345_SPI_Read_2[3]
 135  006E  0080     R  	mov _ADXL345_SPI_Read_2[4],a
 128  006F              #line 128 "D:\IIIT\Documents\HTK_Project\Triaxial_sensor\SourceCode.c"
 128  006F  1580     R  	dec _ADXL345_SPI_Read_2[2]
 128  0070  1780     R  	sdz _ADXL345_SPI_Read_2[1]
 128  0071  2800     R  	jmp _L14
 138  0072              #line 138 "D:\IIIT\Documents\HTK_Project\Triaxial_sensor\SourceCode.c"
 138  0072              ;# 138 "D:\IIIT\Documents\HTK_Project\Triaxial_sensor\SourceCode.c" 1
 138  0072  0000        	nop
 139  0073              #line 139 "D:\IIIT\Documents\HTK_Project\Triaxial_sensor\SourceCode.c"
 139  0073  0F01        	mov a,1
 139  0074  0080     R  	mov __SPI_CS_2[0],a
 139  0075  1F00     R  	clr __SPI_CS_2[1]
 139  0076              	fcall __SPI_CS
 141  007D              #line 141 "D:\IIIT\Documents\HTK_Project\Triaxial_sensor\SourceCode.c"
 141  007D  0700     R  	mov a,_ADXL345_SPI_Read_2[3]
 141  007E  0003        	ret
 141  007F              _ADXL345_SPI_Read endp
 141  007F              #line 141 "D:\IIIT\Documents\HTK_Project\Triaxial_sensor\SourceCode.c"
 141  007F              #pragma debug scope 1 1
 141  007F              public _ADXL345_SPI_Write
 141  007F              #pragma debug scope 7 1
 195  007F              #line 195 "D:\IIIT\Documents\HTK_Project\Triaxial_sensor\SourceCode.c"
 195  0000              _ADXL345_SPI_Write .section 'code'
"File: SourceCode.c  Assembler  Version HGASM0202      Page 7

 195  0000              _ADXL345_SPI_Write proc
 195  0000              public _ADXL345_SPI_Write_2
 195  0000  0004[           local _ADXL345_SPI_Write_2 db 4 dup(?)	; 1,3
            00
            ]
 195  0000  0080     R  	mov _ADXL345_SPI_Write_2[1],a
 195  0001              #pragma debug variable 8 7 _ADXL345_SPI_Write_2+1 "Address"
 195  0001              #pragma debug variable 8 7 _ADXL345_SPI_Write_2+0 "WriteData"
 198  0001              #line 198 "D:\IIIT\Documents\HTK_Project\Triaxial_sensor\SourceCode.c"
 198  0001  1F00     R  	clr __SPI_CS_2[0]
 198  0002  1F00     R  	clr __SPI_CS_2[1]
 198  0003              	fcall __SPI_CS
 199  000A              #line 199 "D:\IIIT\Documents\HTK_Project\Triaxial_sensor\SourceCode.c"
 199  000A              ;# 199 "D:\IIIT\Documents\HTK_Project\Triaxial_sensor\SourceCode.c" 1
 199  000A  0000        	nop
 199  000B  0F08        	mov a,8
 199  000C  0080     R  	mov _ADXL345_SPI_Write_2[2],a
 201  000D              #line 201 "D:\IIIT\Documents\HTK_Project\Triaxial_sensor\SourceCode.c"
 201  000D  0F07        	mov a,7
 201  000E  0080     R  	mov _ADXL345_SPI_Write_2[3],a
 201  000F              _L17:
 204  000F              #line 204 "D:\IIIT\Documents\HTK_Project\Triaxial_sensor\SourceCode.c"
 204  000F  0F01        	mov a,1
 204  0010  0080     R  	mov __SPI_SCL_2[0],a
 204  0011  1F00     R  	clr __SPI_SCL_2[1]
 204  0012              	fcall __SPI_SCL
 205  0019              #line 205 "D:\IIIT\Documents\HTK_Project\Triaxial_sensor\SourceCode.c"
 205  0019  0700     R  	mov a,_ADXL345_SPI_Write_2[1]
 205  001A  0080     E  	mov rb,a
 205  001B  3400     E  	clr rb.7
 205  001C  1F00     E  	clr rc
 205  001D  1400     R  	inca _ADXL345_SPI_Write_2[3]
 205  001E  2800     R  	jmp _LI5
 205  001F              _LI6:
 205  001F  340A        	clr c
 205  0020  3C00     E  	sz rc.7
 205  0021  300A        	set c
 205  0022  1B80     E  	rrc rc
 205  0023  1B80     E  	rrc rb
 205  0024              _LI5:
 205  0024  1785        	sdz acc
 205  0025  2800     R  	jmp _LI6
 205  0026  0F01        	mov a,1
 205  0027  0680     E  	andm a,rb
 205  0028  1100     E  	swapa rb
 205  0029  1885        	rl acc
 205  002A  0EE0        	and a,0e0h
 205  002B  0080     E  	mov rb,a
 205  002C  3692        	clr [18].5
 205  002D  0700     E  	mov a,rb
 205  002E  0592        	orm a,[18]
 206  002F              #line 206 "D:\IIIT\Documents\HTK_Project\Triaxial_sensor\SourceCode.c"
 206  002F              ;# 206 "D:\IIIT\Documents\HTK_Project\Triaxial_sensor\SourceCode.c" 1
 206  002F  0000        	nop
 207  0030              #line 207 "D:\IIIT\Documents\HTK_Project\Triaxial_sensor\SourceCode.c"
 207  0030  1F00     R  	clr __SPI_SCL_2[0]
 207  0031  1F00     R  	clr __SPI_SCL_2[1]
 207  0032              	fcall __SPI_SCL
 208  0039              #line 208 "D:\IIIT\Documents\HTK_Project\Triaxial_sensor\SourceCode.c"
 208  0039              ;# 208 "D:\IIIT\Documents\HTK_Project\Triaxial_sensor\SourceCode.c" 1
"File: SourceCode.c  Assembler  Version HGASM0202      Page 8

 208  0039  0000        	nop
 201  003A              #line 201 "D:\IIIT\Documents\HTK_Project\Triaxial_sensor\SourceCode.c"
 201  003A  1580     R  	dec _ADXL345_SPI_Write_2[3]
 201  003B  1780     R  	sdz _ADXL345_SPI_Write_2[2]
 201  003C  2800     R  	jmp _L17
 201  003D  0F08        	mov a,8
 201  003E  0080     R  	mov _ADXL345_SPI_Write_2[2],a
 201  003F  0F07        	mov a,7
 201  0040  0080     R  	mov _ADXL345_SPI_Write_2[3],a
 201  0041              _L19:
 214  0041              #line 214 "D:\IIIT\Documents\HTK_Project\Triaxial_sensor\SourceCode.c"
 214  0041  0F01        	mov a,1
 214  0042  0080     R  	mov __SPI_SCL_2[0],a
 214  0043  1F00     R  	clr __SPI_SCL_2[1]
 214  0044              	fcall __SPI_SCL
 215  004B              #line 215 "D:\IIIT\Documents\HTK_Project\Triaxial_sensor\SourceCode.c"
 215  004B  0700     R  	mov a,_ADXL345_SPI_Write_2[0]
 215  004C  0080     E  	mov rb,a
 215  004D  1F00     E  	clr rc
 215  004E  1400     R  	inca _ADXL345_SPI_Write_2[3]
 215  004F  2800     R  	jmp _LI7
 215  0050              _LI8:
 215  0050  340A        	clr c
 215  0051  3C00     E  	sz rc.7
 215  0052  300A        	set c
 215  0053  1B80     E  	rrc rc
 215  0054  1B80     E  	rrc rb
 215  0055              _LI7:
 215  0055  1785        	sdz acc
 215  0056  2800     R  	jmp _LI8
 215  0057  0F01        	mov a,1
 215  0058  0680     E  	andm a,rb
 215  0059  1100     E  	swapa rb
 215  005A  1885        	rl acc
 215  005B  0EE0        	and a,0e0h
 215  005C  0080     E  	mov rb,a
 215  005D  3692        	clr [18].5
 215  005E  0700     E  	mov a,rb
 215  005F  0592        	orm a,[18]
 216  0060              #line 216 "D:\IIIT\Documents\HTK_Project\Triaxial_sensor\SourceCode.c"
 216  0060              ;# 216 "D:\IIIT\Documents\HTK_Project\Triaxial_sensor\SourceCode.c" 1
 216  0060  0000        	nop
 217  0061              #line 217 "D:\IIIT\Documents\HTK_Project\Triaxial_sensor\SourceCode.c"
 217  0061  1F00     R  	clr __SPI_SCL_2[0]
 217  0062  1F00     R  	clr __SPI_SCL_2[1]
 217  0063              	fcall __SPI_SCL
 218  006A              #line 218 "D:\IIIT\Documents\HTK_Project\Triaxial_sensor\SourceCode.c"
 218  006A              ;# 218 "D:\IIIT\Documents\HTK_Project\Triaxial_sensor\SourceCode.c" 1
 218  006A  0000        	nop
 211  006B              #line 211 "D:\IIIT\Documents\HTK_Project\Triaxial_sensor\SourceCode.c"
 211  006B  1580     R  	dec _ADXL345_SPI_Write_2[3]
 211  006C  1780     R  	sdz _ADXL345_SPI_Write_2[2]
 211  006D  2800     R  	jmp _L19
 220  006E              #line 220 "D:\IIIT\Documents\HTK_Project\Triaxial_sensor\SourceCode.c"
 220  006E              ;# 220 "D:\IIIT\Documents\HTK_Project\Triaxial_sensor\SourceCode.c" 1
 220  006E  0000        	nop
 221  006F              #line 221 "D:\IIIT\Documents\HTK_Project\Triaxial_sensor\SourceCode.c"
 221  006F  0F01        	mov a,1
 221  0070  0080     R  	mov __SPI_CS_2[0],a
 221  0071  1F00     R  	clr __SPI_CS_2[1]
"File: SourceCode.c  Assembler  Version HGASM0202      Page 9

 221  0072              	fcall __SPI_CS
 221  0079  0003        	ret
 221  007A              _ADXL345_SPI_Write endp
 221  007A              #line 221 "D:\IIIT\Documents\HTK_Project\Triaxial_sensor\SourceCode.c"
 221  007A              #pragma debug scope 1 1
 221  007A              public _DataFormat
 221  007A              #pragma debug scope 8 1
 147  007A              #line 147 "D:\IIIT\Documents\HTK_Project\Triaxial_sensor\SourceCode.c"
 147  0000              _DataFormat .section 'code'
 147  0000              _DataFormat proc
 148  0000              #line 148 "D:\IIIT\Documents\HTK_Project\Triaxial_sensor\SourceCode.c"
 148  0000  0F0B        	mov a,11
 148  0001  0080     R  	mov _ADXL345_SPI_Write_2[0],a
 148  0002  0F31        	mov a,49
 148  0003              	fcall _ADXL345_SPI_Write
 149  000A              #line 149 "D:\IIIT\Documents\HTK_Project\Triaxial_sensor\SourceCode.c"
 149  000A  0F08        	mov a,8
 149  000B  0080     R  	mov _ADXL345_SPI_Write_2[0],a
 149  000C  0F2D        	mov a,45
 149  000D              	fcall _ADXL345_SPI_Write
 150  0014              #line 150 "D:\IIIT\Documents\HTK_Project\Triaxial_sensor\SourceCode.c"
 150  0014  0F80        	mov a,128
 150  0015  0080     R  	mov _ADXL345_SPI_Write_2[0],a
 150  0016  0F2E        	mov a,46
 150  0017              	fcall _ADXL345_SPI_Write
 150  001E  0003        	ret
 150  001F              _DataFormat endp
 150  001F              #line 150 "D:\IIIT\Documents\HTK_Project\Triaxial_sensor\SourceCode.c"
 150  001F              #pragma debug scope 1 1
 150  001F              public _delay_ms
 150  001F              #pragma debug scope 9 1
 261  001F              #line 261 "D:\IIIT\Documents\HTK_Project\Triaxial_sensor\SourceCode.c"
 261  0000              _delay_ms .section 'code'
 261  0000              _delay_ms proc
 261  0000  00              local _delay_ms_2 db 1 dup(?)	; 0,1
 261  0000  0080     R  	mov _delay_ms_2[0],a
 261  0001              #pragma debug variable 8 9 _delay_ms_2+0 "del"
 263  0001              #line 263 "D:\IIIT\Documents\HTK_Project\Triaxial_sensor\SourceCode.c"
 263  0001  1F00     E  	clr ra
 263  0002  2800     R  	jmp _L22
 263  0003              _L23:
 263  0003              #line 263 "D:\IIIT\Documents\HTK_Project\Triaxial_sensor\SourceCode.c"
 263  0003              ;# 263 "D:\IIIT\Documents\HTK_Project\Triaxial_sensor\SourceCode.c" 1
 263  0003              	IF 2000>263690
 263  0003              ;# 263 "D:\IIIT\Documents\HTK_Project\Triaxial_sensor\SourceCode.c" 1
 263  0003              	ERRMESSAGE 'the value 2000of the argument exceeds the maxinum 263690'
 263  0003              	ENDIF
 263  0003              ;# 263 "D:\IIIT\Documents\HTK_Project\Triaxial_sensor\SourceCode.c" 1
 263  0003              	IF 2000<0
 263  0003              ;# 263 "D:\IIIT\Documents\HTK_Project\Triaxial_sensor\SourceCode.c" 1
 263  0003              	ERRMESSAGE 'the value 2000 of the argument exceeds the mininum 0'
 263  0003              	ENDIF
 263  0003              ;# 263 "D:\IIIT\Documents\HTK_Project\Triaxial_sensor\SourceCode.c" 1
 263  0003              	IF 2000==0
 263  0003              ;# 263 "D:\IIIT\Documents\HTK_Project\Triaxial_sensor\SourceCode.c" 1
 263  0003              	JMP $
 263  0003              	ENDIF
 263  0003              ;# 263 "D:\IIIT\Documents\HTK_Project\Triaxial_sensor\SourceCode.c" 1
 263  0003              	IF (2000>=1) AND (2000<( 4 + __PBP__ * 2))
 263  0003              ;# 263 "D:\IIIT\Documents\HTK_Project\Triaxial_sensor\SourceCode.c" 1
"File: SourceCode.c  Assembler  Version HGASM0202      Page 10

 263  0003              	NOP
 263  0003              	ENDIF
 263  0003              ;# 263 "D:\IIIT\Documents\HTK_Project\Triaxial_sensor\SourceCode.c" 1
 263  0003              	IF (2000>=2) AND (2000<( 4 + __PBP__ * 2))
 263  0003              ;# 263 "D:\IIIT\Documents\HTK_Project\Triaxial_sensor\SourceCode.c" 1
 263  0003              	NOP
 263  0003              	ENDIF
 263  0003              ;# 263 "D:\IIIT\Documents\HTK_Project\Triaxial_sensor\SourceCode.c" 1
 263  0003              	IF (2000>=3) AND (2000<( 4 + __PBP__ * 2))
 263  0003              ;# 263 "D:\IIIT\Documents\HTK_Project\Triaxial_sensor\SourceCode.c" 1
 263  0003              	NOP
 263  0003              	ENDIF
 263  0003              ;# 263 "D:\IIIT\Documents\HTK_Project\Triaxial_sensor\SourceCode.c" 1
 263  0003              	IF (2000>=4) AND (2000<( 4 + __PBP__ * 2)) AND ( __PBP__ > 0 )
 263  0003              ;# 263 "D:\IIIT\Documents\HTK_Project\Triaxial_sensor\SourceCode.c" 1
 263  0003              	NOP
 263  0003              	ENDIF
 263  0003              ;# 263 "D:\IIIT\Documents\HTK_Project\Triaxial_sensor\SourceCode.c" 1
 263  0003              	IF (2000>=5) AND (2000<( 4 + __PBP__ * 2)) AND ( __PBP__ > 0 )
 263  0003              ;# 263 "D:\IIIT\Documents\HTK_Project\Triaxial_sensor\SourceCode.c" 1
 263  0003              	NOP
 263  0003              	ENDIF
 263  0003              ;# 263 "D:\IIIT\Documents\HTK_Project\Triaxial_sensor\SourceCode.c" 1
 263  0003              	IF (2000>=6) AND (2000<( 4 + __PBP__ * 2))  AND ( __PBP__ > 1 )
 263  0003              ;# 263 "D:\IIIT\Documents\HTK_Project\Triaxial_sensor\SourceCode.c" 1
 263  0003              	NOP
 263  0003              	ENDIF
 263  0003              ;# 263 "D:\IIIT\Documents\HTK_Project\Triaxial_sensor\SourceCode.c" 1
 263  0003              	IF (2000>=7) AND (2000<( 4 + __PBP__ * 2))  AND ( __PBP__ > 1 )
 263  0003              ;# 263 "D:\IIIT\Documents\HTK_Project\Triaxial_sensor\SourceCode.c" 1
 263  0003              	NOP
 263  0003              	ENDIF
 263  0003              ;# 263 "D:\IIIT\Documents\HTK_Project\Triaxial_sensor\SourceCode.c" 1
 263  0003              	IF (2000>=8) AND (2000<( 4 + __PBP__ * 2))  AND ( __PBP__ > 2 )
 263  0003              ;# 263 "D:\IIIT\Documents\HTK_Project\Triaxial_sensor\SourceCode.c" 1
 263  0003              	NOP
 263  0003              	ENDIF
 263  0003              ;# 263 "D:\IIIT\Documents\HTK_Project\Triaxial_sensor\SourceCode.c" 1
 263  0003              	IF (2000==9)  AND ( __PBP__ > 2 )
 263  0003              ;# 263 "D:\IIIT\Documents\HTK_Project\Triaxial_sensor\SourceCode.c" 1
 263  0003              	NOP
 263  0003              	ENDIF
 263  0003              ;# 263 "D:\IIIT\Documents\HTK_Project\Triaxial_sensor\SourceCode.c" 1
 263  0003              	IF (2000< ( 8 + __PBP__ * 2)) AND (2000>( 3 + __PBP__ * 2))
 263  0003              ;# 263 "D:\IIIT\Documents\HTK_Project\Triaxial_sensor\SourceCode.c" 1
 263  0003              	fcall __DELAY3 + ( 7 + __PBP__ * 2) -2000
 263  0003              	ENDIF
 263  0003              ;# 263 "D:\IIIT\Documents\HTK_Project\Triaxial_sensor\SourceCode.c" 1
 263  0003              	IF (2000< ( 0404h + __PBP__ * 2)) AND (2000>( 7 + __PBP__ * 2))
 263  0003              ;# 263 "D:\IIIT\Documents\HTK_Project\Triaxial_sensor\SourceCode.c" 1
 263  0003              	MOV A,(2000-( 4 + __PBP__ * 2))/4
 263  0003              ;# 263 "D:\IIIT\Documents\HTK_Project\Triaxial_sensor\SourceCode.c" 1
 263  0003              	fcall __DELAYX3 + 3 -((2000-( 4 + __PBP__ * 2)) MOD 4) 
 263  0003              	ENDIF
 263  0003              ;# 263 "D:\IIIT\Documents\HTK_Project\Triaxial_sensor\SourceCode.c" 1
 263  0003              	IF (2000< ( 040bh + __PBP__ * 2)) AND (2000> ( 0403h + __PBP__ * 2))
 263  0003              ;# 263 "D:\IIIT\Documents\HTK_Project\Triaxial_sensor\SourceCode.c" 1
 263  0003              	MOV A,0 
 263  0003              ;# 263 "D:\IIIT\Documents\HTK_Project\Triaxial_sensor\SourceCode.c" 1
 263  0003              	fcall __DELAYX6 + ( 040ah + __PBP__ * 2) -2000
"File: SourceCode.c  Assembler  Version HGASM0202      Page 11

 263  0003              	ENDIF
 263  0003              ;# 263 "D:\IIIT\Documents\HTK_Project\Triaxial_sensor\SourceCode.c" 1
 263  0003              	IF (2000 >= ( 040bh + __PBP__ * 2)) AND ((((2000-( 9 + __PBP__ * 2))%0402h)/4+1)>256)
 263  0003              ;# 263 "D:\IIIT\Documents\HTK_Project\Triaxial_sensor\SourceCode.c" 1
 263  0003              	MOV A,(2000-( 9 + __PBP__ * 2))/0402h
 263  0003              ;# 263 "D:\IIIT\Documents\HTK_Project\Triaxial_sensor\SourceCode.c" 1
 263  0003              	MOV _builtin_holtek_delay_2,A
 263  0003              ;# 263 "D:\IIIT\Documents\HTK_Project\Triaxial_sensor\SourceCode.c" 1
 263  0003              	MOV A,0
 263  0003              ;# 263 "D:\IIIT\Documents\HTK_Project\Triaxial_sensor\SourceCode.c" 1
 263  0003              	fcall __DELAYY5 +5- (((2000-( 9 + __PBP__ * 2))%0402h)%6) 
 263  0003              	ENDIF
 263  0003              ;# 263 "D:\IIIT\Documents\HTK_Project\Triaxial_sensor\SourceCode.c" 1
 263  0003              	IF (2000 >= ( 040bh + __PBP__ * 2)) AND ((((2000-( 9 + __PBP__ * 2))%0402h)/4+1)<=256)
 263  0003              ;# 263 "D:\IIIT\Documents\HTK_Project\Triaxial_sensor\SourceCode.c" 1
 263  0003  0F01        	MOV A,(2000-( 9 + __PBP__ * 2))/0402h
 263  0004              ;# 263 "D:\IIIT\Documents\HTK_Project\Triaxial_sensor\SourceCode.c" 1
 263  0004  0080     E  	MOV _builtin_holtek_delay_2,A
 263  0005              ;# 263 "D:\IIIT\Documents\HTK_Project\Triaxial_sensor\SourceCode.c" 1
 263  0005  0FF1        	MOV A,((2000-( 9 + __PBP__ * 2))%0402h)/4+1
 263  0006              ;# 263 "D:\IIIT\Documents\HTK_Project\Triaxial_sensor\SourceCode.c" 1
 263  0006              	fcall __DELAYY3 +3-(((2000-( 9 + __PBP__ * 2))%0402h)%4) 
 263  000D              	ENDIF
 263  000D  1480     E  	inc ra
 263  000E              _L22:
 263  000E  0700     E  	mov a,ra
 263  000F  0200     R  	sub a,_delay_ms_2[0]
 263  0010  390A        	snz z
 263  0011  2800     R  	jmp _L23
 263  0012  0003        	ret
 263  0013              _delay_ms endp
 263  0013              #line 263 "D:\IIIT\Documents\HTK_Project\Triaxial_sensor\SourceCode.c"
 263  0013              #pragma debug scope 1 1
 263  0013              ___pg equ [42]
 263  0013              ___ph equ [46]
 263  0013              public _LCD_Cmd
 263  0013              #pragma debug scope 10 1
 226  0013              #line 226 "D:\IIIT\Documents\HTK_Project\Triaxial_sensor\SourceCode.c"
 226  0000              _LCD_Cmd .section 'code'
 226  0000              _LCD_Cmd proc
 226  0000  00              local _LCD_Cmd_2 db 1 dup(?)	; 0,1
 226  0000  0080     E  	mov ra,a
 226  0001  0080     R  	mov _LCD_Cmd_2[0],a
 226  0002              #pragma debug variable 8 10 _LCD_Cmd_2+0 "data"
 227  0002              #line 227 "D:\IIIT\Documents\HTK_Project\Triaxial_sensor\SourceCode.c"
 227  0002  0700     E  	mov a,ra
 227  0003  00AA        	mov [42],a
 228  0004              #line 228 "D:\IIIT\Documents\HTK_Project\Triaxial_sensor\SourceCode.c"
 228  0004  342E        	clr [46].0
 228  0005  34AE        	clr [46].1
 228  0006  312E        	set [46].2
 229  0007              #line 229 "D:\IIIT\Documents\HTK_Project\Triaxial_sensor\SourceCode.c"
 229  0007  0F01        	mov a,1
 229  0008              	fcall _delay_ms
 230  000F              #line 230 "D:\IIIT\Documents\HTK_Project\Triaxial_sensor\SourceCode.c"
 230  000F  352E        	clr [46].2
 230  0010  0003        	ret
 230  0011              _LCD_Cmd endp
 230  0011              #line 230 "D:\IIIT\Documents\HTK_Project\Triaxial_sensor\SourceCode.c"
 230  0011              #pragma debug scope 1 1
"File: SourceCode.c  Assembler  Version HGASM0202      Page 12

 230  0011              public _LCD_Reset
 230  0011              #pragma debug scope 11 1
 242  0011              #line 242 "D:\IIIT\Documents\HTK_Project\Triaxial_sensor\SourceCode.c"
 242  0000              _LCD_Reset .section 'code'
 242  0000              _LCD_Reset proc
 243  0000              #line 243 "D:\IIIT\Documents\HTK_Project\Triaxial_sensor\SourceCode.c"
 243  0000  0F38        	mov a,56
 243  0001              	fcall _LCD_Cmd
 247  0008              #line 247 "D:\IIIT\Documents\HTK_Project\Triaxial_sensor\SourceCode.c"
 247  0008  0F0C        	mov a,12
 247  0009              	fcall _LCD_Cmd
 250  0010              #line 250 "D:\IIIT\Documents\HTK_Project\Triaxial_sensor\SourceCode.c"
 250  0010  0F06        	mov a,6
 250  0011              	fcall _LCD_Cmd
 253  0018              #line 253 "D:\IIIT\Documents\HTK_Project\Triaxial_sensor\SourceCode.c"
 253  0018  0F01        	mov a,1
 253  0019              	fcall _LCD_Cmd
 254  0020              #line 254 "D:\IIIT\Documents\HTK_Project\Triaxial_sensor\SourceCode.c"
 254  0020  0F02        	mov a,2
 254  0021              	fcall _LCD_Cmd
 254  0028  0003        	ret
 254  0029              _LCD_Reset endp
 254  0029              #line 254 "D:\IIIT\Documents\HTK_Project\Triaxial_sensor\SourceCode.c"
 254  0029              #pragma debug scope 1 1
 254  0029              public _LCD_Senddata
 254  0029              #pragma debug scope 12 1
 234  0029              #line 234 "D:\IIIT\Documents\HTK_Project\Triaxial_sensor\SourceCode.c"
 234  0000              _LCD_Senddata .section 'code'
 234  0000              _LCD_Senddata proc
 234  0000  00              local _LCD_Senddata_2 db 1 dup(?)	; 0,1
 234  0000  0080     E  	mov ra,a
 234  0001  0080     R  	mov _LCD_Senddata_2[0],a
 234  0002              #pragma debug variable 8 12 _LCD_Senddata_2+0 "data"
 235  0002              #line 235 "D:\IIIT\Documents\HTK_Project\Triaxial_sensor\SourceCode.c"
 235  0002  0700     E  	mov a,ra
 235  0003  00AA        	mov [42],a
 236  0004              #line 236 "D:\IIIT\Documents\HTK_Project\Triaxial_sensor\SourceCode.c"
 236  0004  302E        	set [46].0
 236  0005  34AE        	clr [46].1
 236  0006  312E        	set [46].2
 237  0007              #line 237 "D:\IIIT\Documents\HTK_Project\Triaxial_sensor\SourceCode.c"
 237  0007  0F01        	mov a,1
 237  0008              	fcall _delay_ms
 238  000F              #line 238 "D:\IIIT\Documents\HTK_Project\Triaxial_sensor\SourceCode.c"
 238  000F  352E        	clr [46].2
 238  0010  0003        	ret
 238  0011              _LCD_Senddata endp
 238  0011              #line 238 "D:\IIIT\Documents\HTK_Project\Triaxial_sensor\SourceCode.c"
 238  0011              #pragma debug scope 1 1
 238  0011              public _PrintLCD
 238  0011              #pragma debug scope 13 1
 157  0011              #line 157 "D:\IIIT\Documents\HTK_Project\Triaxial_sensor\SourceCode.c"
 157  0000              _PrintLCD .section 'code'
 157  0000              _PrintLCD proc
 157  0000  00              local _PrintLCD_2 db 1 dup(?)	; 0,1
 157  0000  0080     E  	mov ra,a
 157  0001  0080     R  	mov _PrintLCD_2[0],a
 157  0002              #pragma debug variable 8 13 _PrintLCD_2+0 "data"
 159  0002              #line 159 "D:\IIIT\Documents\HTK_Project\Triaxial_sensor\SourceCode.c"
 159  0002  1F00     E  	clr _builtin_holtek_udivmodqi4_2[3]
"File: SourceCode.c  Assembler  Version HGASM0202      Page 13

 159  0003  0700     E  	mov a,ra  
 159  0004  0080     E  	mov _builtin_holtek_udivmodqi4_2[0],a
 159  0005  0F64        	mov a,100  
 159  0006  0080     E  	mov _builtin_holtek_udivmodqi4_2[1],a
 159  0007              	fcall _builtin_holtek_udivmodqi4
 159  000E  0700     E  	mov a,_builtin_holtek_udivmodqi4_2[0]  
 159  000F  0080     E  	mov ra,a
 159  0010  1F00     E  	clr _builtin_holtek_udivmodqi4_2[3]
 159  0011  0700     E  	mov a,ra  
 159  0012  0080     E  	mov _builtin_holtek_udivmodqi4_2[0],a
 159  0013  0F0A        	mov a,10  
 159  0014  0080     E  	mov _builtin_holtek_udivmodqi4_2[1],a
 159  0015              	fcall _builtin_holtek_udivmodqi4
 159  001C  0700     E  	mov a,_builtin_holtek_udivmodqi4_2[2]  
 159  001D  0080     E  	mov ra,a
 159  001E  0F30        	mov a,48
 159  001F  0380     E  	addm a,ra
 159  0020  0700     E  	mov a,ra
 159  0021              	fcall _LCD_Senddata
 160  0028              #line 160 "D:\IIIT\Documents\HTK_Project\Triaxial_sensor\SourceCode.c"
 160  0028  1F00     E  	clr _builtin_holtek_udivmodqi4_2[3]
 160  0029  0700     R  	mov a,_PrintLCD_2[0]  
 160  002A  0080     E  	mov _builtin_holtek_udivmodqi4_2[0],a
 160  002B  0F0A        	mov a,10  
 160  002C  0080     E  	mov _builtin_holtek_udivmodqi4_2[1],a
 160  002D              	fcall _builtin_holtek_udivmodqi4
 160  0034  0700     E  	mov a,_builtin_holtek_udivmodqi4_2[0]  
 160  0035  0080     E  	mov ra,a
 160  0036  1F00     E  	clr _builtin_holtek_udivmodqi4_2[3]
 160  0037  0700     E  	mov a,ra  
 160  0038  0080     E  	mov _builtin_holtek_udivmodqi4_2[0],a
 160  0039  0F0A        	mov a,10  
 160  003A  0080     E  	mov _builtin_holtek_udivmodqi4_2[1],a
 160  003B              	fcall _builtin_holtek_udivmodqi4
 160  0042  0700     E  	mov a,_builtin_holtek_udivmodqi4_2[2]  
 160  0043  0080     E  	mov ra,a
 160  0044  0F30        	mov a,48
 160  0045  0380     E  	addm a,ra
 160  0046  0700     E  	mov a,ra
 160  0047              	fcall _LCD_Senddata
 161  004E              #line 161 "D:\IIIT\Documents\HTK_Project\Triaxial_sensor\SourceCode.c"
 161  004E  1F00     E  	clr _builtin_holtek_udivmodqi4_2[3]
 161  004F  0700     R  	mov a,_PrintLCD_2[0]  
 161  0050  0080     E  	mov _builtin_holtek_udivmodqi4_2[0],a
 161  0051  0F0A        	mov a,10  
 161  0052  0080     E  	mov _builtin_holtek_udivmodqi4_2[1],a
 161  0053              	fcall _builtin_holtek_udivmodqi4
 161  005A  0700     E  	mov a,_builtin_holtek_udivmodqi4_2[2]  
 161  005B  0080     E  	mov ra,a
 161  005C  0F30        	mov a,48
 161  005D  0380     E  	addm a,ra
 161  005E  0700     E  	mov a,ra
 161  005F              	fcall _LCD_Senddata
 161  0066  0003        	ret
 161  0067              _PrintLCD endp
 161  0067              #line 161 "D:\IIIT\Documents\HTK_Project\Triaxial_sensor\SourceCode.c"
 161  0067              #pragma debug scope 1 1
 161  0067              public _main
 161  0067              #pragma debug scope 14 1
  42  0067              #line 42 "D:\IIIT\Documents\HTK_Project\Triaxial_sensor\SourceCode.c"
"File: SourceCode.c  Assembler  Version HGASM0202      Page 14

  42  0067              IFDEF WITH_DEFAULT_STARTUP
  42  0067              extern _main_initial0:near
  42  0067              extern _main_startup:near
  42  0067              ENDIF
  42  0067              
  42  0067              ROMBANK 0 @start
  42  0000              @start .section com_l 'code'
  42  0000              _main_startup1:
  42  0000              @start .section com_e 'code'
  42  0000  0F00     R  	mov a,bank _main
  42  0001  008B        	mov bp,a
  42  0002  2800     R  	jmp _main
  42  0003              
  42  0000              _main .section 'code'
  42  0000              _main proc
  43  0000              #line 43 "D:\IIIT\Documents\HTK_Project\Triaxial_sensor\SourceCode.c"
  43  0000              	fcall _PinSet
  44  0007              #line 44 "D:\IIIT\Documents\HTK_Project\Triaxial_sensor\SourceCode.c"
  44  0007  0F02        	mov a,2
  44  0008              	fcall _delay_ms
  45  000F              #line 45 "D:\IIIT\Documents\HTK_Project\Triaxial_sensor\SourceCode.c"
  45  000F              	fcall _DataFormat
  47  0016              #line 47 "D:\IIIT\Documents\HTK_Project\Triaxial_sensor\SourceCode.c"
  47  0016              	fcall _LCD_Reset
  48  001D              #line 48 "D:\IIIT\Documents\HTK_Project\Triaxial_sensor\SourceCode.c"
  48  001D  0FFA        	mov a,250
  48  001E              	fcall _delay_ms
  49  0025              #line 49 "D:\IIIT\Documents\HTK_Project\Triaxial_sensor\SourceCode.c"
  49  0025  0FC0        	mov a,192
  49  0026              	fcall _LCD_Cmd
  50  002D              #line 50 "D:\IIIT\Documents\HTK_Project\Triaxial_sensor\SourceCode.c"
  50  002D  0FFA        	mov a,250
  50  002E              _L30:
  50  002E              #line 50 "D:\IIIT\Documents\HTK_Project\Triaxial_sensor\SourceCode.c"
  50  002E              	fcall _delay_ms
  54  0035              #line 54 "D:\IIIT\Documents\HTK_Project\Triaxial_sensor\SourceCode.c"
  54  0035  0F2C        	mov a,44
  54  0036              	fcall _ADXL345_SPI_Read
  54  003D  0080     E  	mov ra,a
  54  003E  0700     E  	mov a,ra
  54  003F  0080     R  	mov _datax[0],a
  55  0040              #line 55 "D:\IIIT\Documents\HTK_Project\Triaxial_sensor\SourceCode.c"
  55  0040  0F64        	mov a,100
  55  0041  0080     R  	mov _Delay100us_2[0],a
  55  0042  1F00     R  	clr _Delay100us_2[1]
  55  0043              	fcall _Delay100us
  57  004A              #line 57 "D:\IIIT\Documents\HTK_Project\Triaxial_sensor\SourceCode.c"
  57  004A  0F80        	mov a,128
  57  004B              	fcall _LCD_Cmd
  58  0052              #line 58 "D:\IIIT\Documents\HTK_Project\Triaxial_sensor\SourceCode.c"
  58  0052  0F96        	mov a,150
  58  0053              	fcall _delay_ms
  59  005A              #line 59 "D:\IIIT\Documents\HTK_Project\Triaxial_sensor\SourceCode.c"
  59  005A  0700     R  	mov a,_datax[0]
  59  005B              	fcall _PrintLCD
  63  0062              #line 63 "D:\IIIT\Documents\HTK_Project\Triaxial_sensor\SourceCode.c"
  63  0062  0F30        	mov a,48
  63  0063              	fcall _ADXL345_SPI_Read
  63  006A  0080     E  	mov ra,a
  63  006B  0700     E  	mov a,ra
"File: SourceCode.c  Assembler  Version HGASM0202      Page 15

  63  006C  0080     R  	mov _datay[0],a
  64  006D              #line 64 "D:\IIIT\Documents\HTK_Project\Triaxial_sensor\SourceCode.c"
  64  006D  0F64        	mov a,100
  64  006E  0080     R  	mov _Delay100us_2[0],a
  64  006F  1F00     R  	clr _Delay100us_2[1]
  64  0070              	fcall _Delay100us
  65  0077              #line 65 "D:\IIIT\Documents\HTK_Project\Triaxial_sensor\SourceCode.c"
  65  0077  0F85        	mov a,133
  65  0078              	fcall _LCD_Cmd
  66  007F              #line 66 "D:\IIIT\Documents\HTK_Project\Triaxial_sensor\SourceCode.c"
  66  007F  0F96        	mov a,150
  66  0080              	fcall _delay_ms
  67  0087              #line 67 "D:\IIIT\Documents\HTK_Project\Triaxial_sensor\SourceCode.c"
  67  0087  0700     R  	mov a,_datay[0]
  67  0088              	fcall _PrintLCD
  68  008F              #line 68 "D:\IIIT\Documents\HTK_Project\Triaxial_sensor\SourceCode.c"
  68  008F  0F32        	mov a,50
  68  0090  2800     R  	jmp _L30
  68  0091  2800     R  	jmp $
  68  0092              _main endp
  68  0092              
  68  0092              @dummy endp
  68  0092              
  68  0092              #line 68 "D:\IIIT\Documents\HTK_Project\Triaxial_sensor\SourceCode.c"
  68  0092              #pragma debug scope 1 1
  68  0092              public _datay
  68  0000              @HCCINIT	.section 'data'
  39  0000              #line 39 "D:\IIIT\Documents\HTK_Project\Triaxial_sensor\SourceCode.c"
  39  0000              @HCCINIT_datay .section 'data'
  39  0000              _datay label byte
  39  0000              #pragma debug variable 8 1 _datay "datay"
  39  0000              	db 0
  39  0000              @ROMDATA_BASE .section inpage 'code'
  39  0000              	db 0
  39  0001              @HCCINIT_datay .section 'data'
  39  0001              public _datax
  39  0001              #line 39 "D:\IIIT\Documents\HTK_Project\Triaxial_sensor\SourceCode.c"
  39  0000              @HCCINIT_datax .section 'data'
  39  0000              _datax label byte
  39  0000              #pragma debug variable 8 1 _datax "datax"
  39  0000              	db 0
  39  0001              @ROMDATA_BASE .section inpage 'code'
  39  0001              	db 0
  39  0001              @HCCINIT_datax .section 'data'
  39  0001              #pragma debug struct_end
  39  0001              #pragma debug struct_end
  39  0001              #pragma debug union_end
  39  0001              #pragma debug union_end
  39  0001              #pragma debug variable 43 1 ___papu "__papu" 1
  39  0001              #pragma debug struct_end
  39  0001              #pragma debug struct_end
  39  0001              #pragma debug union_end
  39  0001              #pragma debug union_end
  39  0001              #pragma debug variable 45 1 ___pa "__pa" 1
  39  0001              #pragma debug struct_end
  39  0001              #pragma debug struct_end
  39  0001              #pragma debug union_end
  39  0001              #pragma debug union_end
  39  0001              #pragma debug variable 47 1 ___pac "__pac" 1
  39  0001              #pragma debug struct_end
"File: SourceCode.c  Assembler  Version HGASM0202      Page 16

  39  0001              #pragma debug struct_end
  39  0001              #pragma debug union_end
  39  0001              #pragma debug union_end
  39  0001              #pragma debug variable 49 1 ___pbpu "__pbpu" 1
  39  0001              #pragma debug struct_end
  39  0001              #pragma debug struct_end
  39  0001              #pragma debug union_end
  39  0001              #pragma debug union_end
  39  0001              #pragma debug variable 51 1 ___pb "__pb" 1
  39  0001              #pragma debug struct_end
  39  0001              #pragma debug struct_end
  39  0001              #pragma debug union_end
  39  0001              #pragma debug union_end
  39  0001              #pragma debug variable 53 1 ___pbc "__pbc" 1
  39  0001              #pragma debug struct_end
  39  0001              #pragma debug struct_end
  39  0001              #pragma debug union_end
  39  0001              #pragma debug union_end
  39  0001              #pragma debug variable 55 1 ___pg "__pg" 1
  39  0001              #pragma debug struct_end
  39  0001              #pragma debug struct_end
  39  0001              #pragma debug union_end
  39  0001              #pragma debug union_end
  39  0001              #pragma debug variable 57 1 ___pgc "__pgc" 1
  39  0001              #pragma debug struct_end
  39  0001              #pragma debug struct_end
  39  0001              #pragma debug union_end
  39  0001              #pragma debug union_end
  39  0001              #pragma debug variable 59 1 ___ph "__ph" 1
  39  0001              #pragma debug struct_end
  39  0001              #pragma debug struct_end
  39  0001              #pragma debug union_end
  39  0001              #pragma debug union_end
  39  0001              #pragma debug variable 61 1 ___phc "__phc" 1
  39  0001              #pragma debug struct_end
  39  0001              #pragma debug struct_end
  39  0001              #pragma debug union_end
  39  0001              #pragma debug union_end
  39  0001              #pragma debug variable 63 1 ___smod "__smod" 1
  39  0001              #pragma debug struct_end
  39  0001              #pragma debug struct_end
  39  0001              #pragma debug union_end
  39  0001              #pragma debug union_end
  39  0001              #pragma debug variable 65 1 ___wdtc "__wdtc" 1
  39  0001              #pragma debug struct_end
  39  0001              #pragma debug struct_end
  39  0001              #pragma debug union_end
  39  0001              #pragma debug union_end
  39  0001              #pragma debug variable 67 1 ___cp0c "__cp0c" 1
  39  0001              #pragma debug struct_end
  39  0001              #pragma debug struct_end
  39  0001              #pragma debug union_end
  39  0001              #pragma debug union_end
  39  0001              #pragma debug variable 69 1 ___cp1c "__cp1c" 1
  39  0001              #pragma debug struct_end
  39  0001              #pragma debug struct_end
  39  0001              #pragma debug union_end
  39  0001              #pragma debug union_end
  39  0001              #pragma debug variable 71 1 ___simc0 "__simc0" 1
  39  0001              #pragma debug struct_end
"File: SourceCode.c  Assembler  Version HGASM0202      Page 17

  39  0001              #pragma debug struct_end
  39  0001              #pragma debug union_end
  39  0001              #pragma debug union_end
  39  0001              #pragma debug variable 73 1 ___simc2 "__simc2" 1
  39  0001              #pragma debug struct_end
  39  0001              #pragma debug struct_end
  39  0001              #pragma debug union_end
  39  0001              #pragma debug union_end
  39  0001              #pragma debug variable 75 1 ___scomc "__scomc" 1
  39  0001              #pragma debug struct_end
  39  0001              #pragma debug struct_end
  39  0001              #pragma debug union_end
  39  0001              #pragma debug union_end
  39  0001              #pragma debug variable 77 1 ___ifs4 "__ifs4" 1
  39  0001              IFDEF ISR_SYSTEM_STACK_BEFORE_2014_12_23
  39  0001              ELSE
  39  0001              ENDIF
  42  0001              #line 42 "D:\IIIT\Documents\HTK_Project\Triaxial_sensor\SourceCode.c"
  42  0000              @code .section at 0 'code'
  42  0000  1F0B        	clr bp
  42  0001  2800     R  	jmp _main_startup1
  42  0002              
  42  0002              extern _builtin_holtek_udivmodqi4_2:byte
  42  0002              extern _builtin_holtek_udivmodqi4:near
  42  0002              
  42  0002              ; 
  42  0002              ; Generated by holtek-gcc v3.13, Thu Jul 19 23:00:26 2018
  42  0002              ; Rebuild 26
  42  0002              ; end of file


        0 Errors, 0