"File: SourceCode.c  Assembler  Version HGASM0202      Page 1


   1  0000              ; Generated by holtek-gcc v3.13, Thu Jul 05 22:19:09 2018
   2  0000              ; 
   3  0000              ; Configuration:
   4  0000              ;       with long instruction
   5  0000              ;       Multi-ROM, Multi-RAM
   6  0000              ;       bits_per_rom_unit:16
   7  0000              ;       with mp1
   8  0000              ;       with tbhp, address(0x9)
   9  0000              ;          Use tabrd-const
  10  0000              ;       
  11  0000              ; SFR address of long-instruction arch:
  12  0000              ;    mp0 = -1,1,0
  13  0000              ;    mp1 = 4,3,2
  14  0000              ;    mp2 = 14,13,12
  15  0000              ;    tbp = 9,7,8
  16  0000              ;    acc = 5
  17  0000              ;    pcl = 6
  18  0000              ;    status = 10
  19  0000              ;    bp = 11
  20  0000              ;    intc = 48
  21  0000              ;       
  22  0000              ; use 'tabrdc' instead of 'tabrd'
  23  0000              ;       
  24  0000              
  25  0000              #pragma translator "holtek-gcc 4.6.4" "3.13" "build 20130711"
  26  0000              ; Rebuild 26
  27  0000              
  28  0000              ir equ [2]
  29  0000              mp equ [3]
  30  0000              sbp equ [4]
  31  0000              acc equ [5]
  32  0000              bp equ [11]
  33  0000              tblp equ [7]
  34  0000              tbhp equ [9]
  35  0000              status equ [10]
  36  0000              c equ [10].0
  37  0000              ac equ [10].1
  38  0000              z equ [10].2
  39  0000              ov equ [10].3
  40  0000              cz equ [10].6
  41  0000              sc equ [10].7
  42  0000              intc equ [48]
  43  0000              
  44  0000              extern ra:byte
  45  0000              extern rb:byte
  46  0000              extern rc:byte
  47  0000              extern rd:byte
  48  0000              extern re:byte
  49  0000              extern rf:byte
  50  0000              extern rg:byte
  51  0000              extern rh:byte
  52  0000              extern _Crom2Prom:near
  53  0000              extern _Crom2PromNext:near
  54  0000              @HCCINIT	.section 'data'
  55  0000              @HCCINIT0	.section 'data'
  56  0000              
  57  0000              #pragma debug scope 1 1
  58  0000              	extern __DELAY3:near
  59  0000              	extern __DELAYX3:near
"File: SourceCode.ASM  Assembler  Version HGASM0202      Page 2

  60  0000              	extern __DELAYX6:near
  61  0000              	extern __DELAYY5:near
  62  0000              	extern __DELAYY3:near
  63  0000              	extern _builtin_holtek_delay_2:byte
  64  0000              public _Delay100us
  65  0000              #pragma debug scope 2 1

  80  0000              #line 80 "D:\IIIT\Documents\HTK_Project\Triaxial_sensor\SourceCode.c"
  80  0000              _Delay100us .section 'code'
  80  0000              _Delay100us proc
  80  0000              public _Delay100us_2
  80  0000  0002[           local _Delay100us_2 db 2 dup(?)	; 2,0
            00
            ]
  80  0002              #pragma debug variable 9 2 _Delay100us_2+0 "del"
  81  0000              #line 81 "D:\IIIT\Documents\HTK_Project\Triaxial_sensor\SourceCode.c"
  81  0000  1F00     E  	clr rb
  81  0001  1F00     E  	clr rc
  81  0002              _L2:
  81  0002              #line 81 "D:\IIIT\Documents\HTK_Project\Triaxial_sensor\SourceCode.c"
  81  0002  0700     E  	mov a,rb
  81  0003  0200     R  	sub a,_Delay100us_2[0]
  81  0004  0700     E  	mov a,rc
  81  0005  1200     R  	sbc a,_Delay100us_2[1]
  81  0006  3B8A        	snz sc
  81  0007  2800     R  	jmp _L1
  81  0008  1F00     E  	clr ra
  81  0009              _L5:
  82  0009              #line 82 "D:\IIIT\Documents\HTK_Project\Triaxial_sensor\SourceCode.c"
  82  0009              ;# 82 "D:\IIIT\Documents\HTK_Project\Triaxial_sensor\SourceCode.c" 1
  82  0009  0000        	nop
  82  000A  1480     E  	inc ra
  82  000B  0700     E  	mov a,ra
  82  000C  0A1A        	sub a,26
  82  000D  390A        	snz z
  82  000E  2800     R  	jmp _L5
  81  000F              #line 81 "D:\IIIT\Documents\HTK_Project\Triaxial_sensor\SourceCode.c"
  81  000F  1480     E  	inc rb
  81  0010  3D0A        	sz z
  81  0011  1480     E  	inc rc
  81  0012  2800     R  	jmp _L2
  81  0013              _L1:
  81  0013  0003        	ret
  81  0014              _Delay100us endp
  81  0014              #line 81 "D:\IIIT\Documents\HTK_Project\Triaxial_sensor\SourceCode.c"
  81  0014              #pragma debug scope 1 1
  81  0014              ___pa equ [18]
  81  0014              public _Master
  81  0014              #pragma debug scope 3 1
  70  0014              #line 70 "D:\IIIT\Documents\HTK_Project\Triaxial_sensor\SourceCode.c"
  70  0000              _Master .section 'code'
  70  0000              _Master proc
  70  0000              public _Master_2
  70  0000  0005[           local _Master_2 db 5 dup(?)	; 2,3
            00
            ]
  70  0005              #pragma debug variable 10 3 _Master_2+0 "Data"
  70  0005              #pragma debug variable 10 3 _Master_2+2 "temp"
  70  0000  1F00     R  	clr _Master_2[4]
  70  0001  0F01        	mov a,1
"File: SourceCode.c  Assembler  Version HGASM0202      Page 3

  70  0002  0080     R  	mov _Master_2[2],a
  70  0003  1F00     R  	clr _Master_2[3]
  70  0004              _L9:
  73  0004              #line 73 "D:\IIIT\Documents\HTK_Project\Triaxial_sensor\SourceCode.c"
  73  0004  0700     R  	mov a,_Master_2[0]
  73  0005  0600     R  	and a,_Master_2[2]
  73  0006  0080     E  	mov ra,a
  73  0007  0F01        	mov a,1
  73  0008  0680     E  	andm a,ra
  73  0009  1100     E  	swapa ra
  73  000A  1885        	rl acc
  73  000B  0EE0        	and a,0e0h
  73  000C  0080     E  	mov ra,a
  73  000D  3692        	clr [18].5
  73  000E  0700     E  	mov a,ra
  73  000F  0592        	orm a,[18]
  74  0010              #line 74 "D:\IIIT\Documents\HTK_Project\Triaxial_sensor\SourceCode.c"
  74  0010  3392        	set [18].7
  74  0011  0F03        	mov a,3
  74  0012  0080     R  	mov _Delay100us_2[0],a
  74  0013  1F00     R  	clr _Delay100us_2[1]
  74  0014              	fcall _Delay100us
  74  001B  3792        	clr [18].7
  75  001C              #line 75 "D:\IIIT\Documents\HTK_Project\Triaxial_sensor\SourceCode.c"
  75  001C  340A        	clr c
  75  001D  1A80     R  	rlc _Master_2[2]
  75  001E  1A80     R  	rlc _Master_2[3]
  75  001F  1480     R  	inc _Master_2[4]
  76  0020              #line 76 "D:\IIIT\Documents\HTK_Project\Triaxial_sensor\SourceCode.c"
  76  0020  0700     R  	mov a,_Master_2[4]
  76  0021  0A10        	sub a,16
  76  0022  390A        	snz z
  76  0023  2800     R  	jmp _L9
  76  0024  0003        	ret
  76  0025              _Master endp
  76  0025              #line 76 "D:\IIIT\Documents\HTK_Project\Triaxial_sensor\SourceCode.c"
  76  0025              #pragma debug scope 1 1
  76  0025              ___pb equ [22]
  76  0025              public __SPI_CS
  76  0025              #pragma debug scope 4 1
  86  0025              #line 86 "D:\IIIT\Documents\HTK_Project\Triaxial_sensor\SourceCode.c"
  86  0000              __SPI_CS .section 'code'
  86  0000              __SPI_CS proc
  86  0000              public __SPI_CS_2
  86  0000  0002[           local __SPI_CS_2 db 2 dup(?)	; 2,0
            00
            ]
  86  0002              #pragma debug variable 10 4 __SPI_CS_2+0 "isSelect"
  87  0000              #line 87 "D:\IIIT\Documents\HTK_Project\Triaxial_sensor\SourceCode.c"
  87  0000  0700     R  	mov a,__SPI_CS_2[0]
  87  0001  0E01        	and a,1
  87  0002  0080     E  	mov ra,a
  87  0003  1100     E  	swapa ra
  87  0004  1885        	rl acc
  87  0005  0EE0        	and a,0e0h
  87  0006  0080     E  	mov ra,a
  87  0007  3696        	clr [22].5
  87  0008  0700     E  	mov a,ra
  87  0009  0596        	orm a,[22]
  88  000A              #line 88 "D:\IIIT\Documents\HTK_Project\Triaxial_sensor\SourceCode.c"
"File: SourceCode.c  Assembler  Version HGASM0202      Page 4

  88  000A              ;# 88 "D:\IIIT\Documents\HTK_Project\Triaxial_sensor\SourceCode.c" 1
  88  000A  0000        	nop
  88  000B  0003        	ret
  88  000C              __SPI_CS endp
  88  000C              #line 88 "D:\IIIT\Documents\HTK_Project\Triaxial_sensor\SourceCode.c"
  88  000C              #pragma debug scope 1 1
  88  000C              public __SPI_SCL
  88  000C              #pragma debug scope 5 1
  92  000C              #line 92 "D:\IIIT\Documents\HTK_Project\Triaxial_sensor\SourceCode.c"
  92  0000              __SPI_SCL .section 'code'
  92  0000              __SPI_SCL proc
  92  0000              public __SPI_SCL_2
  92  0000  0002[           local __SPI_SCL_2 db 2 dup(?)	; 2,0
            00
            ]
  92  0002              #pragma debug variable 10 5 __SPI_SCL_2+0 "bLevel"
  93  0000              #line 93 "D:\IIIT\Documents\HTK_Project\Triaxial_sensor\SourceCode.c"
  93  0000  0700     R  	mov a,__SPI_SCL_2[0]
  93  0001  0080     E  	mov ra,a
  93  0002  1B80     E  	rrc ra
  93  0003  1F00     E  	clr ra
  93  0004  1B80     E  	rrc ra
  93  0005  3792        	clr [18].7
  93  0006  0700     E  	mov a,ra
  93  0007  0592        	orm a,[18]
  94  0008              #line 94 "D:\IIIT\Documents\HTK_Project\Triaxial_sensor\SourceCode.c"
  94  0008              ;# 94 "D:\IIIT\Documents\HTK_Project\Triaxial_sensor\SourceCode.c" 1
  94  0008  0000        	nop
  94  0009  0003        	ret
  94  000A              __SPI_SCL endp
  94  000A              #line 94 "D:\IIIT\Documents\HTK_Project\Triaxial_sensor\SourceCode.c"
  94  000A              #pragma debug scope 1 1
  94  000A              public _ADXL345_SPI_Read
  94  000A              #pragma debug scope 6 1
  98  000A              #line 98 "D:\IIIT\Documents\HTK_Project\Triaxial_sensor\SourceCode.c"
  98  0000              _ADXL345_SPI_Read .section 'code'
  98  0000              _ADXL345_SPI_Read proc
  98  0000  0004[           local _ADXL345_SPI_Read_2 db 4 dup(?)	; 0,4
            00
            ]
  98  0000  0080     R  	mov _ADXL345_SPI_Read_2[0],a
  98  0001              #pragma debug variable 8 6 _ADXL345_SPI_Read_2+0 "Address"
  98  0001              #pragma debug variable 8 6 _ADXL345_SPI_Read_2+2 "ReadData"
 103  0001              #line 103 "D:\IIIT\Documents\HTK_Project\Triaxial_sensor\SourceCode.c"
 103  0001  1F00     R  	clr __SPI_CS_2[0]
 103  0002  1F00     R  	clr __SPI_CS_2[1]
 103  0003              	fcall __SPI_CS
 103  000A  0F08        	mov a,8
 103  000B  0080     R  	mov _ADXL345_SPI_Read_2[1],a
 105  000C              #line 105 "D:\IIIT\Documents\HTK_Project\Triaxial_sensor\SourceCode.c"
 105  000C  0F07        	mov a,7
 105  000D  0080     R  	mov _ADXL345_SPI_Read_2[2],a
 105  000E              _L14:
 108  000E              #line 108 "D:\IIIT\Documents\HTK_Project\Triaxial_sensor\SourceCode.c"
 108  000E  0F01        	mov a,1
 108  000F  0080     R  	mov __SPI_SCL_2[0],a
 108  0010  1F00     R  	clr __SPI_SCL_2[1]
 108  0011              	fcall __SPI_SCL
 109  0018              #line 109 "D:\IIIT\Documents\HTK_Project\Triaxial_sensor\SourceCode.c"
 109  0018  0700     R  	mov a,_ADXL345_SPI_Read_2[0]
"File: SourceCode.c  Assembler  Version HGASM0202      Page 5

 109  0019  0080     E  	mov rb,a
 109  001A  3000     E  	set rb.7
 109  001B  1F00     E  	clr rc
 109  001C  1400     R  	inca _ADXL345_SPI_Read_2[2]
 109  001D  2800     R  	jmp _LI1
 109  001E              _LI2:
 109  001E  340A        	clr c
 109  001F  3C00     E  	sz rc.7
 109  0020  300A        	set c
 109  0021  1B80     E  	rrc rc
 109  0022  1B80     E  	rrc rb
 109  0023              _LI1:
 109  0023  1785        	sdz acc
 109  0024  2800     R  	jmp _LI2
 109  0025  0F01        	mov a,1
 109  0026  0680     E  	andm a,rb
 109  0027  1900     E  	rra rb
 109  0028  1985        	rr acc
 109  0029  0EC0        	and a,0c0h
 109  002A  0080     E  	mov rb,a
 109  002B  3712        	clr [18].6
 109  002C  0700     E  	mov a,rb
 109  002D  0592        	orm a,[18]
 110  002E              #line 110 "D:\IIIT\Documents\HTK_Project\Triaxial_sensor\SourceCode.c"
 110  002E  1F00     R  	clr __SPI_SCL_2[0]
 110  002F  1F00     R  	clr __SPI_SCL_2[1]
 110  0030              	fcall __SPI_SCL
 105  0037              #line 105 "D:\IIIT\Documents\HTK_Project\Triaxial_sensor\SourceCode.c"
 105  0037  1580     R  	dec _ADXL345_SPI_Read_2[2]
 105  0038  1780     R  	sdz _ADXL345_SPI_Read_2[1]
 105  0039  2800     R  	jmp _L14
 114  003A              #line 114 "D:\IIIT\Documents\HTK_Project\Triaxial_sensor\SourceCode.c"
 114  003A  0F01        	mov a,1
 114  003B  0080     R  	mov __SPI_SCL_2[0],a
 114  003C  1F00     R  	clr __SPI_SCL_2[1]
 114  003D              	fcall __SPI_SCL
 114  0044  0F08        	mov a,8
 114  0045  0080     R  	mov _ADXL345_SPI_Read_2[1],a
 117  0046              #line 117 "D:\IIIT\Documents\HTK_Project\Triaxial_sensor\SourceCode.c"
 117  0046  0F07        	mov a,7
 117  0047  0080     R  	mov _ADXL345_SPI_Read_2[3],a
  99  0048              #line 99 "D:\IIIT\Documents\HTK_Project\Triaxial_sensor\SourceCode.c"
  99  0048  1F00     R  	clr _ADXL345_SPI_Read_2[2]
  99  0049              _L16:
 120  0049              #line 120 "D:\IIIT\Documents\HTK_Project\Triaxial_sensor\SourceCode.c"
 120  0049  1F00     R  	clr __SPI_SCL_2[0]
 120  004A  1F00     R  	clr __SPI_SCL_2[1]
 120  004B              	fcall __SPI_SCL
 121  0052              #line 121 "D:\IIIT\Documents\HTK_Project\Triaxial_sensor\SourceCode.c"
 121  0052  0F01        	mov a,1
 121  0053  0080     R  	mov __SPI_SCL_2[0],a
 121  0054  1F00     R  	clr __SPI_SCL_2[1]
 121  0055              	fcall __SPI_SCL
 122  005C              #line 122 "D:\IIIT\Documents\HTK_Project\Triaxial_sensor\SourceCode.c"
 122  005C  1F00     E  	clr rb
 122  005D  3E92        	sz [18].5
 122  005E  1480     E  	inc rb
 124  005F              #line 124 "D:\IIIT\Documents\HTK_Project\Triaxial_sensor\SourceCode.c"
 124  005F  1F00     E  	clr rc
 124  0060  1400     R  	inca _ADXL345_SPI_Read_2[3]
"File: SourceCode.c  Assembler  Version HGASM0202      Page 6

 124  0061  2800     R  	jmp _LI3
 124  0062              _LI4:
 124  0062  340A        	clr c
 124  0063  1A80     E  	rlc rb
 124  0064  1A80     E  	rlc rc
 124  0065              _LI3:
 124  0065  1785        	sdz acc
 124  0066  2800     R  	jmp _LI4
 124  0067  0700     E  	mov a,rb
 124  0068  0580     R  	orm a,_ADXL345_SPI_Read_2[2]
 117  0069              #line 117 "D:\IIIT\Documents\HTK_Project\Triaxial_sensor\SourceCode.c"
 117  0069  1580     R  	dec _ADXL345_SPI_Read_2[3]
 117  006A  1780     R  	sdz _ADXL345_SPI_Read_2[1]
 117  006B  2800     R  	jmp _L16
 127  006C              #line 127 "D:\IIIT\Documents\HTK_Project\Triaxial_sensor\SourceCode.c"
 127  006C  0F01        	mov a,1
 127  006D  0080     R  	mov __SPI_CS_2[0],a
 127  006E  1F00     R  	clr __SPI_CS_2[1]
 127  006F              	fcall __SPI_CS
 129  0076              #line 129 "D:\IIIT\Documents\HTK_Project\Triaxial_sensor\SourceCode.c"
 129  0076  0700     R  	mov a,_ADXL345_SPI_Read_2[2]
 129  0077  0003        	ret
 129  0078              _ADXL345_SPI_Read endp
 129  0078              #line 129 "D:\IIIT\Documents\HTK_Project\Triaxial_sensor\SourceCode.c"
 129  0078              #pragma debug scope 1 1
 129  0078              public _delay_ms
 129  0078              #pragma debug scope 7 1
 139  0078              #line 139 "D:\IIIT\Documents\HTK_Project\Triaxial_sensor\SourceCode.c"
 139  0000              _delay_ms .section 'code'
 139  0000              _delay_ms proc
 139  0000  00              local _delay_ms_2 db 1 dup(?)	; 0,1
 139  0000  0080     R  	mov _delay_ms_2[0],a
 139  0001              #pragma debug variable 8 7 _delay_ms_2+0 "del"
 141  0001              #line 141 "D:\IIIT\Documents\HTK_Project\Triaxial_sensor\SourceCode.c"
 141  0001  1F00     E  	clr ra
 141  0002  2800     R  	jmp _L18
 141  0003              _L19:
 141  0003              #line 141 "D:\IIIT\Documents\HTK_Project\Triaxial_sensor\SourceCode.c"
 141  0003              ;# 141 "D:\IIIT\Documents\HTK_Project\Triaxial_sensor\SourceCode.c" 1
 141  0003              	IF 2000>263690
 141  0003              ;# 141 "D:\IIIT\Documents\HTK_Project\Triaxial_sensor\SourceCode.c" 1
 141  0003              	ERRMESSAGE 'the value 2000of the argument exceeds the maxinum 263690'
 141  0003              	ENDIF
 141  0003              ;# 141 "D:\IIIT\Documents\HTK_Project\Triaxial_sensor\SourceCode.c" 1
 141  0003              	IF 2000<0
 141  0003              ;# 141 "D:\IIIT\Documents\HTK_Project\Triaxial_sensor\SourceCode.c" 1
 141  0003              	ERRMESSAGE 'the value 2000 of the argument exceeds the mininum 0'
 141  0003              	ENDIF
 141  0003              ;# 141 "D:\IIIT\Documents\HTK_Project\Triaxial_sensor\SourceCode.c" 1
 141  0003              	IF 2000==0
 141  0003              ;# 141 "D:\IIIT\Documents\HTK_Project\Triaxial_sensor\SourceCode.c" 1
 141  0003              	JMP $
 141  0003              	ENDIF
 141  0003              ;# 141 "D:\IIIT\Documents\HTK_Project\Triaxial_sensor\SourceCode.c" 1
 141  0003              	IF (2000>=1) AND (2000<( 4 + __PBP__ * 2))
 141  0003              ;# 141 "D:\IIIT\Documents\HTK_Project\Triaxial_sensor\SourceCode.c" 1
 141  0003              	NOP
 141  0003              	ENDIF
 141  0003              ;# 141 "D:\IIIT\Documents\HTK_Project\Triaxial_sensor\SourceCode.c" 1
 141  0003              	IF (2000>=2) AND (2000<( 4 + __PBP__ * 2))
"File: SourceCode.c  Assembler  Version HGASM0202      Page 7

 141  0003              ;# 141 "D:\IIIT\Documents\HTK_Project\Triaxial_sensor\SourceCode.c" 1
 141  0003              	NOP
 141  0003              	ENDIF
 141  0003              ;# 141 "D:\IIIT\Documents\HTK_Project\Triaxial_sensor\SourceCode.c" 1
 141  0003              	IF (2000>=3) AND (2000<( 4 + __PBP__ * 2))
 141  0003              ;# 141 "D:\IIIT\Documents\HTK_Project\Triaxial_sensor\SourceCode.c" 1
 141  0003              	NOP
 141  0003              	ENDIF
 141  0003              ;# 141 "D:\IIIT\Documents\HTK_Project\Triaxial_sensor\SourceCode.c" 1
 141  0003              	IF (2000>=4) AND (2000<( 4 + __PBP__ * 2)) AND ( __PBP__ > 0 )
 141  0003              ;# 141 "D:\IIIT\Documents\HTK_Project\Triaxial_sensor\SourceCode.c" 1
 141  0003              	NOP
 141  0003              	ENDIF
 141  0003              ;# 141 "D:\IIIT\Documents\HTK_Project\Triaxial_sensor\SourceCode.c" 1
 141  0003              	IF (2000>=5) AND (2000<( 4 + __PBP__ * 2)) AND ( __PBP__ > 0 )
 141  0003              ;# 141 "D:\IIIT\Documents\HTK_Project\Triaxial_sensor\SourceCode.c" 1
 141  0003              	NOP
 141  0003              	ENDIF
 141  0003              ;# 141 "D:\IIIT\Documents\HTK_Project\Triaxial_sensor\SourceCode.c" 1
 141  0003              	IF (2000>=6) AND (2000<( 4 + __PBP__ * 2))  AND ( __PBP__ > 1 )
 141  0003              ;# 141 "D:\IIIT\Documents\HTK_Project\Triaxial_sensor\SourceCode.c" 1
 141  0003              	NOP
 141  0003              	ENDIF
 141  0003              ;# 141 "D:\IIIT\Documents\HTK_Project\Triaxial_sensor\SourceCode.c" 1
 141  0003              	IF (2000>=7) AND (2000<( 4 + __PBP__ * 2))  AND ( __PBP__ > 1 )
 141  0003              ;# 141 "D:\IIIT\Documents\HTK_Project\Triaxial_sensor\SourceCode.c" 1
 141  0003              	NOP
 141  0003              	ENDIF
 141  0003              ;# 141 "D:\IIIT\Documents\HTK_Project\Triaxial_sensor\SourceCode.c" 1
 141  0003              	IF (2000>=8) AND (2000<( 4 + __PBP__ * 2))  AND ( __PBP__ > 2 )
 141  0003              ;# 141 "D:\IIIT\Documents\HTK_Project\Triaxial_sensor\SourceCode.c" 1
 141  0003              	NOP
 141  0003              	ENDIF
 141  0003              ;# 141 "D:\IIIT\Documents\HTK_Project\Triaxial_sensor\SourceCode.c" 1
 141  0003              	IF (2000==9)  AND ( __PBP__ > 2 )
 141  0003              ;# 141 "D:\IIIT\Documents\HTK_Project\Triaxial_sensor\SourceCode.c" 1
 141  0003              	NOP
 141  0003              	ENDIF
 141  0003              ;# 141 "D:\IIIT\Documents\HTK_Project\Triaxial_sensor\SourceCode.c" 1
 141  0003              	IF (2000< ( 8 + __PBP__ * 2)) AND (2000>( 3 + __PBP__ * 2))
 141  0003              ;# 141 "D:\IIIT\Documents\HTK_Project\Triaxial_sensor\SourceCode.c" 1
 141  0003              	fcall __DELAY3 + ( 7 + __PBP__ * 2) -2000
 141  0003              	ENDIF
 141  0003              ;# 141 "D:\IIIT\Documents\HTK_Project\Triaxial_sensor\SourceCode.c" 1
 141  0003              	IF (2000< ( 0404h + __PBP__ * 2)) AND (2000>( 7 + __PBP__ * 2))
 141  0003              ;# 141 "D:\IIIT\Documents\HTK_Project\Triaxial_sensor\SourceCode.c" 1
 141  0003              	MOV A,(2000-( 4 + __PBP__ * 2))/4
 141  0003              ;# 141 "D:\IIIT\Documents\HTK_Project\Triaxial_sensor\SourceCode.c" 1
 141  0003              	fcall __DELAYX3 + 3 -((2000-( 4 + __PBP__ * 2)) MOD 4) 
 141  0003              	ENDIF
 141  0003              ;# 141 "D:\IIIT\Documents\HTK_Project\Triaxial_sensor\SourceCode.c" 1
 141  0003              	IF (2000< ( 040bh + __PBP__ * 2)) AND (2000> ( 0403h + __PBP__ * 2))
 141  0003              ;# 141 "D:\IIIT\Documents\HTK_Project\Triaxial_sensor\SourceCode.c" 1
 141  0003              	MOV A,0 
 141  0003              ;# 141 "D:\IIIT\Documents\HTK_Project\Triaxial_sensor\SourceCode.c" 1
 141  0003              	fcall __DELAYX6 + ( 040ah + __PBP__ * 2) -2000
 141  0003              	ENDIF
 141  0003              ;# 141 "D:\IIIT\Documents\HTK_Project\Triaxial_sensor\SourceCode.c" 1
 141  0003              	IF (2000 >= ( 040bh + __PBP__ * 2)) AND ((((2000-( 9 + __PBP__ * 2))%0402h)/4+1)>256)
 141  0003              ;# 141 "D:\IIIT\Documents\HTK_Project\Triaxial_sensor\SourceCode.c" 1
"File: SourceCode.c  Assembler  Version HGASM0202      Page 8

 141  0003              	MOV A,(2000-( 9 + __PBP__ * 2))/0402h
 141  0003              ;# 141 "D:\IIIT\Documents\HTK_Project\Triaxial_sensor\SourceCode.c" 1
 141  0003              	MOV _builtin_holtek_delay_2,A
 141  0003              ;# 141 "D:\IIIT\Documents\HTK_Project\Triaxial_sensor\SourceCode.c" 1
 141  0003              	MOV A,0
 141  0003              ;# 141 "D:\IIIT\Documents\HTK_Project\Triaxial_sensor\SourceCode.c" 1
 141  0003              	fcall __DELAYY5 +5- (((2000-( 9 + __PBP__ * 2))%0402h)%6) 
 141  0003              	ENDIF
 141  0003              ;# 141 "D:\IIIT\Documents\HTK_Project\Triaxial_sensor\SourceCode.c" 1
 141  0003              	IF (2000 >= ( 040bh + __PBP__ * 2)) AND ((((2000-( 9 + __PBP__ * 2))%0402h)/4+1)<=256)
 141  0003              ;# 141 "D:\IIIT\Documents\HTK_Project\Triaxial_sensor\SourceCode.c" 1
 141  0003  0F01        	MOV A,(2000-( 9 + __PBP__ * 2))/0402h
 141  0004              ;# 141 "D:\IIIT\Documents\HTK_Project\Triaxial_sensor\SourceCode.c" 1
 141  0004  0080     E  	MOV _builtin_holtek_delay_2,A
 141  0005              ;# 141 "D:\IIIT\Documents\HTK_Project\Triaxial_sensor\SourceCode.c" 1
 141  0005  0FF1        	MOV A,((2000-( 9 + __PBP__ * 2))%0402h)/4+1
 141  0006              ;# 141 "D:\IIIT\Documents\HTK_Project\Triaxial_sensor\SourceCode.c" 1
 141  0006              	fcall __DELAYY3 +3-(((2000-( 9 + __PBP__ * 2))%0402h)%4) 
 141  000D              	ENDIF
 141  000D  1480     E  	inc ra
 141  000E              _L18:
 141  000E  0700     E  	mov a,ra
 141  000F  0200     R  	sub a,_delay_ms_2[0]
 141  0010  390A        	snz z
 141  0011  2800     R  	jmp _L19
 141  0012  0003        	ret
 141  0013              _delay_ms endp
 141  0013              #line 141 "D:\IIIT\Documents\HTK_Project\Triaxial_sensor\SourceCode.c"
 141  0013              #pragma debug scope 1 1
 141  0013              ___pg equ [42]
 141  0013              ___ph equ [46]
 141  0013              public _LCD_Cmd
 141  0013              #pragma debug scope 8 1
 132  0013              #line 132 "D:\IIIT\Documents\HTK_Project\Triaxial_sensor\SourceCode.c"
 132  0000              _LCD_Cmd .section 'code'
 132  0000              _LCD_Cmd proc
 132  0000  00              local _LCD_Cmd_2 db 1 dup(?)	; 0,1
 132  0000  0080     E  	mov ra,a
 132  0001  0080     R  	mov _LCD_Cmd_2[0],a
 132  0002              #pragma debug variable 8 8 _LCD_Cmd_2+0 "data"
 133  0002              #line 133 "D:\IIIT\Documents\HTK_Project\Triaxial_sensor\SourceCode.c"
 133  0002  0700     E  	mov a,ra
 133  0003  00AA        	mov [42],a
 134  0004              #line 134 "D:\IIIT\Documents\HTK_Project\Triaxial_sensor\SourceCode.c"
 134  0004  342E        	clr [46].0
 134  0005  34AE        	clr [46].1
 134  0006  312E        	set [46].2
 135  0007              #line 135 "D:\IIIT\Documents\HTK_Project\Triaxial_sensor\SourceCode.c"
 135  0007  0F01        	mov a,1
 135  0008              	fcall _delay_ms
 136  000F              #line 136 "D:\IIIT\Documents\HTK_Project\Triaxial_sensor\SourceCode.c"
 136  000F  352E        	clr [46].2
 136  0010  0003        	ret
 136  0011              _LCD_Cmd endp
 136  0011              #line 136 "D:\IIIT\Documents\HTK_Project\Triaxial_sensor\SourceCode.c"
 136  0011              #pragma debug scope 1 1
 136  0011              public _LCD_Reset
 136  0011              #pragma debug scope 9 1
 145  0011              #line 145 "D:\IIIT\Documents\HTK_Project\Triaxial_sensor\SourceCode.c"
 145  0000              _LCD_Reset .section 'code'
"File: SourceCode.c  Assembler  Version HGASM0202      Page 9

 145  0000              _LCD_Reset proc
 146  0000              #line 146 "D:\IIIT\Documents\HTK_Project\Triaxial_sensor\SourceCode.c"
 146  0000  0F38        	mov a,56
 146  0001              	fcall _LCD_Cmd
 150  0008              #line 150 "D:\IIIT\Documents\HTK_Project\Triaxial_sensor\SourceCode.c"
 150  0008  0F0C        	mov a,12
 150  0009              	fcall _LCD_Cmd
 153  0010              #line 153 "D:\IIIT\Documents\HTK_Project\Triaxial_sensor\SourceCode.c"
 153  0010  0F06        	mov a,6
 153  0011              	fcall _LCD_Cmd
 156  0018              #line 156 "D:\IIIT\Documents\HTK_Project\Triaxial_sensor\SourceCode.c"
 156  0018  0F01        	mov a,1
 156  0019              	fcall _LCD_Cmd
 157  0020              #line 157 "D:\IIIT\Documents\HTK_Project\Triaxial_sensor\SourceCode.c"
 157  0020  0F02        	mov a,2
 157  0021              	fcall _LCD_Cmd
 157  0028  0003        	ret
 157  0029              _LCD_Reset endp
 157  0029              #line 157 "D:\IIIT\Documents\HTK_Project\Triaxial_sensor\SourceCode.c"
 157  0029              #pragma debug scope 1 1
 157  0029              public _LCD_Senddata
 157  0029              #pragma debug scope 10 1
 161  0029              #line 161 "D:\IIIT\Documents\HTK_Project\Triaxial_sensor\SourceCode.c"
 161  0000              _LCD_Senddata .section 'code'
 161  0000              _LCD_Senddata proc
 161  0000  00              local _LCD_Senddata_2 db 1 dup(?)	; 0,1
 161  0000  0080     E  	mov ra,a
 161  0001  0080     R  	mov _LCD_Senddata_2[0],a
 161  0002              #pragma debug variable 8 10 _LCD_Senddata_2+0 "data"
 162  0002              #line 162 "D:\IIIT\Documents\HTK_Project\Triaxial_sensor\SourceCode.c"
 162  0002  0700     E  	mov a,ra
 162  0003  00AA        	mov [42],a
 163  0004              #line 163 "D:\IIIT\Documents\HTK_Project\Triaxial_sensor\SourceCode.c"
 163  0004  302E        	set [46].0
 163  0005  34AE        	clr [46].1
 163  0006  312E        	set [46].2
 164  0007              #line 164 "D:\IIIT\Documents\HTK_Project\Triaxial_sensor\SourceCode.c"
 164  0007  0F01        	mov a,1
 164  0008              	fcall _delay_ms
 165  000F              #line 165 "D:\IIIT\Documents\HTK_Project\Triaxial_sensor\SourceCode.c"
 165  000F  352E        	clr [46].2
 165  0010  0003        	ret
 165  0011              _LCD_Senddata endp
 165  0011              #line 165 "D:\IIIT\Documents\HTK_Project\Triaxial_sensor\SourceCode.c"
 165  0011              #pragma debug scope 1 1
 165  0011              ___wdtc equ [62]
 165  0011              ___pas2 equ [354]
 165  0011              ___pas3 equ [355]
 165  0011              ___pbs2 equ [358]
 165  0011              ___phc equ [47]
 165  0011              ___pgc equ [43]
 165  0011              ___pac equ [19]
 165  0011              ___papu equ [17]
 165  0011              ___pbc equ [23]
 165  0011              ___cp0c equ [70]
 165  0011              ___cp1c equ [71]
 165  0011              public _main
 165  0011              #pragma debug scope 11 1
  38  0011              #line 38 "D:\IIIT\Documents\HTK_Project\Triaxial_sensor\SourceCode.c"
  38  0011              IFDEF WITH_DEFAULT_STARTUP
"File: SourceCode.c  Assembler  Version HGASM0202      Page 10

  38  0011              extern _main_initial0:near
  38  0011              extern _main_startup:near
  38  0011              ENDIF
  38  0011              
  38  0011              ROMBANK 0 @start
  38  0000              @start .section com_l 'code'
  38  0000              _main_startup1:
  38  0000              @start .section com_e 'code'
  38  0000  0F00     R  	mov a,bank _main
  38  0001  008B        	mov bp,a
  38  0002  2800     R  	jmp _main
  38  0003              
  38  0000              _main .section 'code'
  38  0000              _main proc
  38  0000  0002[           local _main_2 db 2 dup(?)
            00
            ]
  38  0002              #pragma debug variable 8 11 _main_2+0 "i"
  38  0002              #pragma debug variable 8 11 _main_2+1 "datax"
  40  0000              #line 40 "D:\IIIT\Documents\HTK_Project\Triaxial_sensor\SourceCode.c"
  40  0000  0FAB        	mov a,171
  40  0001  00BE        	mov [62],a
  42  0002              #line 42 "D:\IIIT\Documents\HTK_Project\Triaxial_sensor\SourceCode.c"
  42  0002  0F10        	mov a,16
  42  0003  80E2 0001   	lmov [354],a
  43  0005              #line 43 "D:\IIIT\Documents\HTK_Project\Triaxial_sensor\SourceCode.c"
  43  0005  0F22        	mov a,34
  43  0006  80E3 0001   	lmov [355],a
  44  0008              #line 44 "D:\IIIT\Documents\HTK_Project\Triaxial_sensor\SourceCode.c"
  44  0008  0F10        	mov a,16
  44  0009  80E6 0001   	lmov [358],a
  46  000B              #line 46 "D:\IIIT\Documents\HTK_Project\Triaxial_sensor\SourceCode.c"
  46  000B  342F        	clr [47].0
  46  000C  34AF        	clr [47].1
  46  000D  352F        	clr [47].2
  47  000E              #line 47 "D:\IIIT\Documents\HTK_Project\Triaxial_sensor\SourceCode.c"
  47  000E  1F2B        	clr [43]
  49  000F              #line 49 "D:\IIIT\Documents\HTK_Project\Triaxial_sensor\SourceCode.c"
  49  000F  3693        	clr [19].5
  49  0010  3313        	set [19].6
  49  0011  3793        	clr [19].7
  50  0012              #line 50 "D:\IIIT\Documents\HTK_Project\Triaxial_sensor\SourceCode.c"
  50  0012  3311        	set [17].6
  50  0013  3792        	clr [18].7
  50  0014  3697        	clr [23].5
  51  0015              #line 51 "D:\IIIT\Documents\HTK_Project\Triaxial_sensor\SourceCode.c"
  51  0015  3696        	clr [22].5
  53  0016              #line 53 "D:\IIIT\Documents\HTK_Project\Triaxial_sensor\SourceCode.c"
  53  0016  1F46        	clr [70]
  54  0017              #line 54 "D:\IIIT\Documents\HTK_Project\Triaxial_sensor\SourceCode.c"
  54  0017  1F47        	clr [71]
  56  0018              #line 56 "D:\IIIT\Documents\HTK_Project\Triaxial_sensor\SourceCode.c"
  56  0018              	fcall _LCD_Reset
  57  001F              #line 57 "D:\IIIT\Documents\HTK_Project\Triaxial_sensor\SourceCode.c"
  57  001F  0F05        	mov a,5
  57  0020              	fcall _delay_ms
  58  0027              #line 58 "D:\IIIT\Documents\HTK_Project\Triaxial_sensor\SourceCode.c"
  58  0027  0F80        	mov a,128
  58  0028              	fcall _LCD_Cmd
  60  002F              #line 60 "D:\IIIT\Documents\HTK_Project\Triaxial_sensor\SourceCode.c"
"File: SourceCode.c  Assembler  Version HGASM0202      Page 11

  60  002F  0F32        	mov a,50
  60  0030              	fcall _ADXL345_SPI_Read
  61  0037              #line 61 "D:\IIIT\Documents\HTK_Project\Triaxial_sensor\SourceCode.c"
  61  0037  0F34        	mov a,52
  61  0038              	fcall _ADXL345_SPI_Read
  62  003F              #line 62 "D:\IIIT\Documents\HTK_Project\Triaxial_sensor\SourceCode.c"
  62  003F  0F32        	mov a,50
  62  0040              	fcall _ADXL345_SPI_Read
  62  0047  0080     R  	mov _main_2[1],a
  63  0048              #line 63 "D:\IIIT\Documents\HTK_Project\Triaxial_sensor\SourceCode.c"
  63  0048  1F00     R  	clr _main_2[0]
  63  0049  2800     R  	jmp _L24
  63  004A              _L25:
  65  004A              #line 65 "D:\IIIT\Documents\HTK_Project\Triaxial_sensor\SourceCode.c"
  65  004A  0700     R  	mov a,_main_2[1]
  65  004B              	fcall _LCD_Senddata
  63  0052              #line 63 "D:\IIIT\Documents\HTK_Project\Triaxial_sensor\SourceCode.c"
  63  0052  1480     R  	inc _main_2[0]
  63  0053              _L24:
  63  0053  0F10        	mov a,16
  63  0054  0200     R  	sub a,_main_2[0]
  63  0055  3C0A        	sz c
  63  0056  2800     R  	jmp _L25
  63  0057  2800     R  	jmp $
  63  0058              _main endp
  63  0058              
  63  0058              @dummy endp
  63  0058              
  63  0058              #line 63 "D:\IIIT\Documents\HTK_Project\Triaxial_sensor\SourceCode.c"
  63  0058              #pragma debug scope 1 1
  63  0058              #pragma debug struct_end
  63  0058              #pragma debug struct_end
  63  0058              #pragma debug union_end
  63  0058              #pragma debug union_end
  63  0058              #pragma debug variable 43 1 ___papu "__papu" 1
  63  0058              #pragma debug struct_end
  63  0058              #pragma debug struct_end
  63  0058              #pragma debug union_end
  63  0058              #pragma debug union_end
  63  0058              #pragma debug variable 45 1 ___pa "__pa" 1
  63  0058              #pragma debug struct_end
  63  0058              #pragma debug struct_end
  63  0058              #pragma debug union_end
  63  0058              #pragma debug union_end
  63  0058              #pragma debug variable 47 1 ___pac "__pac" 1
  63  0058              #pragma debug struct_end
  63  0058              #pragma debug struct_end
  63  0058              #pragma debug union_end
  63  0058              #pragma debug union_end
  63  0058              #pragma debug variable 49 1 ___pb "__pb" 1
  63  0058              #pragma debug struct_end
  63  0058              #pragma debug struct_end
  63  0058              #pragma debug union_end
  63  0058              #pragma debug union_end
  63  0058              #pragma debug variable 51 1 ___pbc "__pbc" 1
  63  0058              #pragma debug struct_end
  63  0058              #pragma debug struct_end
  63  0058              #pragma debug union_end
  63  0058              #pragma debug union_end
  63  0058              #pragma debug variable 53 1 ___pg "__pg" 1
"File: SourceCode.c  Assembler  Version HGASM0202      Page 12

  63  0058              #pragma debug struct_end
  63  0058              #pragma debug struct_end
  63  0058              #pragma debug union_end
  63  0058              #pragma debug union_end
  63  0058              #pragma debug variable 55 1 ___pgc "__pgc" 1
  63  0058              #pragma debug struct_end
  63  0058              #pragma debug struct_end
  63  0058              #pragma debug union_end
  63  0058              #pragma debug union_end
  63  0058              #pragma debug variable 57 1 ___ph "__ph" 1
  63  0058              #pragma debug struct_end
  63  0058              #pragma debug struct_end
  63  0058              #pragma debug union_end
  63  0058              #pragma debug union_end
  63  0058              #pragma debug variable 59 1 ___phc "__phc" 1
  63  0058              #pragma debug struct_end
  63  0058              #pragma debug struct_end
  63  0058              #pragma debug union_end
  63  0058              #pragma debug union_end
  63  0058              #pragma debug variable 61 1 ___wdtc "__wdtc" 1
  63  0058              #pragma debug struct_end
  63  0058              #pragma debug struct_end
  63  0058              #pragma debug union_end
  63  0058              #pragma debug union_end
  63  0058              #pragma debug variable 63 1 ___cp0c "__cp0c" 1
  63  0058              #pragma debug struct_end
  63  0058              #pragma debug struct_end
  63  0058              #pragma debug union_end
  63  0058              #pragma debug union_end
  63  0058              #pragma debug variable 65 1 ___cp1c "__cp1c" 1
  63  0058              #pragma debug struct_end
  63  0058              #pragma debug struct_end
  63  0058              #pragma debug union_end
  63  0058              #pragma debug union_end
  63  0058              #pragma debug variable 67 1 ___pas2 "__pas2" 1
  63  0058              #pragma debug struct_end
  63  0058              #pragma debug struct_end
  63  0058              #pragma debug union_end
  63  0058              #pragma debug union_end
  63  0058              #pragma debug variable 69 1 ___pas3 "__pas3" 1
  63  0058              #pragma debug struct_end
  63  0058              #pragma debug struct_end
  63  0058              #pragma debug union_end
  63  0058              #pragma debug union_end
  63  0058              #pragma debug variable 71 1 ___pbs2 "__pbs2" 1
  63  0058              IFDEF ISR_SYSTEM_STACK_BEFORE_2014_12_23
  63  0058              ELSE
  63  0058              ENDIF
  38  0058              #line 38 "D:\IIIT\Documents\HTK_Project\Triaxial_sensor\SourceCode.c"
  38  0000              @code .section at 0 'code'
  38  0000  1F0B        	clr bp
  38  0001  2800     R  	jmp _main_startup1
  38  0002              
  38  0002              
  38  0002              ; 
  38  0002              ; Generated by holtek-gcc v3.13, Thu Jul 05 22:19:09 2018
  38  0002              ; Rebuild 26
  38  0002              ; end of file


"File: SourceCode.c  Assembler  Version HGASM0202      Page 13

        0 Errors, 0