"File: UART.c        Assembler  Version HGASM0202      Page 1


   1  0000              ; Generated by holtek-gcc v3.18, Wed Oct 31 19:08:40 2018
   2  0000              ; 
   3  0000              ; Configuration:
   4  0000              ;       with long instruction
   5  0000              ;       Multi-ROM, Multi-RAM
   6  0000              ;       bits_per_rom_unit:16
   7  0000              ;       with mp1
   8  0000              ;       with tbhp, address(0x9)
   9  0000              ;          Use tabrd-const
  10  0000              ;       
  11  0000              ; SFR address of long-instruction arch:
  12  0000              ;    mp0 = -1,1,0
  13  0000              ;    mp1 = 4,3,2
  14  0000              ;    mp2 = 14,13,12
  15  0000              ;    tbp = 9,7,8
  16  0000              ;    acc = 5
  17  0000              ;    pcl = 6
  18  0000              ;    status = 10
  19  0000              ;    bp = 11
  20  0000              ;    intc = 48
  21  0000              ;       
  22  0000              ;       
  23  0000              ; use 'tabrdc' instead of 'tabrd'
  24  0000              ;       
  25  0000              
  26  0000              #pragma translator "holtek-gcc 4.6.4" "3.18" "build 20130711"
  27  0000              ; Rebuild 521
  28  0000              
  29  0000              ir equ [2]
  30  0000              mp equ [3]
  31  0000              sbp equ [4]
  32  0000              acc equ [5]
  33  0000              bp equ [11]
  34  0000              tblp equ [7]
  35  0000              tbhp equ [9]
  36  0000              status equ [10]
  37  0000              c equ [10].0
  38  0000              ac equ [10].1
  39  0000              z equ [10].2
  40  0000              ov equ [10].3
  41  0000              cz equ [10].6
  42  0000              sc equ [10].7
  43  0000              intc equ [48]
  44  0000              
  45  0000              extern ra:byte
  46  0000              extern rb:byte
  47  0000              extern rc:byte
  48  0000              extern rd:byte
  49  0000              extern re:byte
  50  0000              extern rf:byte
  51  0000              extern rg:byte
  52  0000              extern rh:byte
  53  0000              extern _Crom2Prom:near
  54  0000              extern _Crom2PromNext:near
  55  0000              
  56  0000              RAMBANK 0 @BITDATASEC, @BITDATASEC1
  57  0000              @HCCINIT	.section 'data'
  58  0000              @HCCINIT0	.section 'data'
  59  0000              @BITDATASEC	 .section 'data'
"File: UART.ASM      Assembler  Version HGASM0202      Page 2

  60  0000              @BITDATASEC1	 .section 'data'
  61  0000              
  62  0000              #pragma debug scope 1 1
  63  0000              	extern __DELAY3:near
  64  0000              	extern __DELAYX3:near
  65  0000              	extern __DELAYX6:near
  66  0000              	extern __DELAYY5:near
  67  0000              	extern __DELAYY3:near
  68  0000              	extern _builtin_holtek_delay_2:byte
  69  0000              public _UART_INIT
  70  0000              #pragma debug scope 2 1

  14  0000              #line 14 "C:\Users\IIIT\Documents\HTK_Project\Bluetooth\UART.c"
  14  0000              _UART_INIT .section 'code'
  14  0000              _UART_INIT proc
  15  0000              #line 15 "C:\Users\IIIT\Documents\HTK_Project\Bluetooth\UART.c"
  15  0000              	fcall _TM0_INIT
  15  0007  0003        	ret
  15  0008              _UART_INIT endp
  15  0008              #line 15 "C:\Users\IIIT\Documents\HTK_Project\Bluetooth\UART.c"
  15  0008              #pragma debug scope 1 1
  15  0008              public _Waitflag
  15  0008              #pragma debug scope 3 1
  19  0008              #line 19 "C:\Users\IIIT\Documents\HTK_Project\Bluetooth\UART.c"
  19  0000              _Waitflag .section 'code'
  19  0000              _Waitflag proc
  19  0000              _L4:
  20  0000              #line 20 "C:\Users\IIIT\Documents\HTK_Project\Bluetooth\UART.c"
  20  0000  0700     R  	mov a,_flag[0]
  20  0001  0500     R  	or a,_flag[1]
  20  0002  3D0A        	sz z
  20  0003  2800     R  	jmp _L4
  21  0004              #line 21 "C:\Users\IIIT\Documents\HTK_Project\Bluetooth\UART.c"
  21  0004  1F00     R  	clr _flag[0]
  21  0005  1F00     R  	clr _flag[1]
  21  0006  0003        	ret
  21  0007              _Waitflag endp
  21  0007              #line 21 "C:\Users\IIIT\Documents\HTK_Project\Bluetooth\UART.c"
  21  0007              #pragma debug scope 1 1
  21  0007              ___pc equ [26]
  21  0007              ___tm0c0 equ [94]
  21  0007              public _WByte
  21  0007              #pragma debug scope 4 1
  26  0007              #line 26 "C:\Users\IIIT\Documents\HTK_Project\Bluetooth\UART.c"
  26  0000              _WByte .section 'code'
  26  0000              _WByte proc
  26  0000  0002[           local _WByte_2 db 2 dup(?)	; 0,2
            00
            ]
  26  0000  0080     R  	mov _WByte_2[0],a
  26  0001              #pragma debug variable 8 4 _WByte_2+0 "input"
  29  0001              #line 29 "C:\Users\IIIT\Documents\HTK_Project\Bluetooth\UART.c"
  29  0001  351A        	clr [26].2
  30  0002              #line 30 "C:\Users\IIIT\Documents\HTK_Project\Bluetooth\UART.c"
  30  0002  31DE        	set [94].3
  31  0003              #line 31 "C:\Users\IIIT\Documents\HTK_Project\Bluetooth\UART.c"
  31  0003              	fcall _Waitflag
  32  000A              #line 32 "C:\Users\IIIT\Documents\HTK_Project\Bluetooth\UART.c"
  32  000A  0F09        	mov a,9
  32  000B  0080     R  	mov _WByte_2[1],a
"File: UART.c        Assembler  Version HGASM0202      Page 3

  32  000C              _L7:
  32  000C  1780     R  	sdz _WByte_2[1]
  32  000D  2800     R  	jmp _LI1
  32  000E  2800     R  	jmp _L9
  32  000F              _LI1:
  34  000F              #line 34 "C:\Users\IIIT\Documents\HTK_Project\Bluetooth\UART.c"
  34  000F  0700     R  	mov a,_WByte_2[0]
  34  0010  0E01        	and a,1
  34  0011  0080     E  	mov rb,a
  34  0012  1F00     E  	clr ra
  34  0013  1080     E  	sz rb
  34  0014  3000     E  	set ra.2
  34  0015  351A        	clr [26].2
  34  0016  0700     E  	mov a,ra
  34  0017  059A        	orm a,[26]
  35  0018              #line 35 "C:\Users\IIIT\Documents\HTK_Project\Bluetooth\UART.c"
  35  0018  340A        	clr c
  35  0019  1B80     R  	rrc _WByte_2[0]
  36  001A              #line 36 "C:\Users\IIIT\Documents\HTK_Project\Bluetooth\UART.c"
  36  001A              	fcall _Waitflag
  36  0021  2800     R  	jmp _L7
  36  0022              _L9:
  38  0022              #line 38 "C:\Users\IIIT\Documents\HTK_Project\Bluetooth\UART.c"
  38  0022  311A        	set [26].2
  39  0023              #line 39 "C:\Users\IIIT\Documents\HTK_Project\Bluetooth\UART.c"
  39  0023              	fcall _Waitflag
  40  002A              #line 40 "C:\Users\IIIT\Documents\HTK_Project\Bluetooth\UART.c"
  40  002A  35DE        	clr [94].3
  40  002B  0003        	ret
  40  002C              _WByte endp
  40  002C              #line 40 "C:\Users\IIIT\Documents\HTK_Project\Bluetooth\UART.c"
  40  002C              #pragma debug scope 1 1
  40  002C              public _Send
  40  002C              #pragma debug scope 5 1
  45  002C              #line 45 "C:\Users\IIIT\Documents\HTK_Project\Bluetooth\UART.c"
  45  0000              _Send .section 'code'
  45  0000              _Send proc
  45  0000              public _Send_2
  45  0000  0002[           local _Send_2 db 2 dup(?)	; 2,0
            00
            ]
  45  0002              #pragma debug pointer 42 7 5
  45  0002              #pragma debug pointer 42 7 5
  45  0002              #pragma debug variable 42 5 _Send_2+0 "buf"
  46  0002              #line 46 "C:\Users\IIIT\Documents\HTK_Project\Bluetooth\UART.c"
  46  0000  2800     R  	jmp _L11
  46  0001              _L12:
  48  0001              #line 48 "C:\Users\IIIT\Documents\HTK_Project\Bluetooth\UART.c"
  48  0001  0700     E  	mov a,ra
  48  0002              	fcall _WByte
  49  0009              #line 49 "C:\Users\IIIT\Documents\HTK_Project\Bluetooth\UART.c"
  49  0009  1480     R  	inc _Send_2[0]
  49  000A  3D0A        	sz z
  49  000B  1480     R  	inc _Send_2[1]
  49  000C              _L11:
  46  000C              #line 46 "C:\Users\IIIT\Documents\HTK_Project\Bluetooth\UART.c"
  46  000C  0700     R  	mov a,_Send_2[0]
  46  000D  0083        	mov mp,a
  46  000E  0700     R  	mov a,_Send_2[1]
  46  000F  0084        	mov sbp,a
"File: UART.c        Assembler  Version HGASM0202      Page 4

  46  0010              	fcall _Crom2Prom
  46  0017  0080     E  	mov ra,a
  46  0018  1080     E  	sz ra
  46  0019  2800     R  	jmp _L12
  46  001A  0003        	ret
  46  001B              _Send endp
  46  001B              #line 46 "C:\Users\IIIT\Documents\HTK_Project\Bluetooth\UART.c"
  46  001B              #pragma debug scope 1 1
  46  001B              public _Send_num
  46  001B              #pragma debug scope 6 1
  54  001B              #line 54 "C:\Users\IIIT\Documents\HTK_Project\Bluetooth\UART.c"
  54  0000              _Send_num .section 'code'
  54  0000              _Send_num proc
  54  0000              public _Send_num_2
  54  0000  0006[           local _Send_num_2 db 6 dup(?)	; 4,2
            00
            ]
  54  0006              #pragma debug variable 12 6 _Send_num_2+0 "s"
  54  0006              #pragma debug pointer 43 7 6
  54  0006              #pragma debug pointer 43 7 6
  54  0006              #pragma debug variable 43 6 _Send_num_2+2 "buf"
  54  0000  0700     R  	mov a,_Send_num_2[0]
  54  0001  0300     R  	add a,_Send_num_2[2]
  54  0002  0080     R  	mov _Send_num_2[4],a
  54  0003  0700     R  	mov a,_Send_num_2[1]
  54  0004  1300     R  	adc a,_Send_num_2[3]
  54  0005  0080     R  	mov _Send_num_2[5],a
  55  0006              #line 55 "C:\Users\IIIT\Documents\HTK_Project\Bluetooth\UART.c"
  55  0006  2800     R  	jmp _L14
  55  0007              _L15:
  57  0007              #line 57 "C:\Users\IIIT\Documents\HTK_Project\Bluetooth\UART.c"
  57  0007  0700     R  	mov a,_Send_num_2[2]
  57  0008  0083        	mov mp,a
  57  0009  0700     R  	mov a,_Send_num_2[3]
  57  000A  0084        	mov sbp,a
  57  000B              	fcall _Crom2Prom
  57  0012              	fcall _WByte
  58  0019              #line 58 "C:\Users\IIIT\Documents\HTK_Project\Bluetooth\UART.c"
  58  0019  1480     R  	inc _Send_num_2[2]
  58  001A  3D0A        	sz z
  58  001B  1480     R  	inc _Send_num_2[3]
  58  001C              _L14:
  55  001C              #line 55 "C:\Users\IIIT\Documents\HTK_Project\Bluetooth\UART.c"
  55  001C  0700     R  	mov a,_Send_num_2[2]
  55  001D  0200     R  	sub a,_Send_num_2[4]
  55  001E  0700     R  	mov a,_Send_num_2[3]
  55  001F  1200     R  	sbc a,_Send_num_2[5]
  55  0020  3B0A        	snz cz
  55  0021  2800     R  	jmp _L15
  55  0022  0003        	ret
  55  0023              _Send_num endp
  55  0023              #line 55 "C:\Users\IIIT\Documents\HTK_Project\Bluetooth\UART.c"
  55  0023              #pragma debug scope 1 1
  55  0023              public _Send_Array
  55  0023              #pragma debug scope 7 1
  64  0023              #line 64 "C:\Users\IIIT\Documents\HTK_Project\Bluetooth\UART.c"
  64  0000              _Send_Array .section 'code'
  64  0000              _Send_Array proc
  64  0000  0002[           local _Send_Array_2 db 2 dup(?)	; 0,2
            00
"File: UART.c        Assembler  Version HGASM0202      Page 5

            ]
  64  0002              #pragma debug variable 12 7 _Send_Array_2+0 "i"
  66  0002              #line 66 "C:\Users\IIIT\Documents\HTK_Project\Bluetooth\UART.c"
  66  0000  1F00     R  	clr _Send_Array_2[0]
  66  0001  1F00     R  	clr _Send_Array_2[1]
  66  0002              _L18:
  67  0002              #line 67 "C:\Users\IIIT\Documents\HTK_Project\Bluetooth\UART.c"
  67  0002  0F00     R  	mov a,low offset _buff
  67  0003  0300     R  	add a,_Send_Array_2[0]
  67  0004  0083        	mov mp,a
  67  0005  0F00     R  	mov a,high offset _buff
  67  0006  1300     R  	adc a,_Send_Array_2[1]
  67  0007  0084        	mov sbp,a
  67  0008              	fcall _Crom2Prom
  67  000F              	fcall _WByte
  66  0016              #line 66 "C:\Users\IIIT\Documents\HTK_Project\Bluetooth\UART.c"
  66  0016  1480     R  	inc _Send_Array_2[0]
  66  0017  3D0A        	sz z
  66  0018  1480     R  	inc _Send_Array_2[1]
  66  0019  0700     R  	mov a,_Send_Array_2[0]
  66  001A  0C10        	xor a,16
  66  001B  0500     R  	or a,_Send_Array_2[1]
  66  001C  390A        	snz z
  66  001D  2800     R  	jmp _L18
  66  001E  0003        	ret
  66  001F              _Send_Array endp
  66  001F              #line 66 "C:\Users\IIIT\Documents\HTK_Project\Bluetooth\UART.c"
  66  001F              #pragma debug scope 1 1
  66  001F              public _RByte
  66  001F              #pragma debug scope 8 1
  71  001F              #line 71 "C:\Users\IIIT\Documents\HTK_Project\Bluetooth\UART.c"
  71  0000              _RByte .section 'code'
  71  0000              _RByte proc
  71  0000  0002[           local _RByte_2 db 2 dup(?)	; 0,2
            00
            ]
  71  0002              #pragma debug variable 8 8 _RByte_2+0 "receive"
  71  0000              _L21:
  74  0000              #line 74 "C:\Users\IIIT\Documents\HTK_Project\Bluetooth\UART.c"
  74  0000  3D9A        	sz [26].3
  74  0001  2800     R  	jmp _L21
  75  0002              #line 75 "C:\Users\IIIT\Documents\HTK_Project\Bluetooth\UART.c"
  75  0002  31DE        	set [94].3
  76  0003              #line 76 "C:\Users\IIIT\Documents\HTK_Project\Bluetooth\UART.c"
  76  0003              	fcall _Waitflag
  77  000A              #line 77 "C:\Users\IIIT\Documents\HTK_Project\Bluetooth\UART.c"
  77  000A  0F09        	mov a,9
  77  000B  0080     R  	mov _RByte_2[1],a
  77  000C              _L22:
  77  000C  1780     R  	sdz _RByte_2[1]
  77  000D  2800     R  	jmp _LI2
  77  000E  2800     R  	jmp _L28
  77  000F              _LI2:
  79  000F              #line 79 "C:\Users\IIIT\Documents\HTK_Project\Bluetooth\UART.c"
  79  000F  340A        	clr c
  79  0010  1B80     R  	rrc _RByte_2[0]
  80  0011              #line 80 "C:\Users\IIIT\Documents\HTK_Project\Bluetooth\UART.c"
  80  0011  399A        	snz [26].3
  80  0012  2800     R  	jmp _L23
  81  0013              #line 81 "C:\Users\IIIT\Documents\HTK_Project\Bluetooth\UART.c"
"File: UART.c        Assembler  Version HGASM0202      Page 6

  81  0013  3000     R  	set _RByte_2[0].7
  81  0014              _L23:
  82  0014              #line 82 "C:\Users\IIIT\Documents\HTK_Project\Bluetooth\UART.c"
  82  0014              	fcall _Waitflag
  82  001B  2800     R  	jmp _L22
  82  001C              _L28:
  84  001C              #line 84 "C:\Users\IIIT\Documents\HTK_Project\Bluetooth\UART.c"
  84  001C  35DE        	clr [94].3
  86  001D              #line 86 "C:\Users\IIIT\Documents\HTK_Project\Bluetooth\UART.c"
  86  001D  0700     R  	mov a,_RByte_2[0]
  86  001E  0003        	ret
  86  001F              _RByte endp
  86  001F              #line 86 "C:\Users\IIIT\Documents\HTK_Project\Bluetooth\UART.c"
  86  001F              #pragma debug scope 1 1
  86  001F              public _Receive
  86  001F              #pragma debug scope 9 1
  89  001F              #line 89 "C:\Users\IIIT\Documents\HTK_Project\Bluetooth\UART.c"
  89  0000              _Receive .section 'code'
  89  0000              _Receive proc
  89  0000  0002[           local _Receive_2 db 2 dup(?)	; 0,2
            00
            ]
  90  0002              #line 90 "C:\Users\IIIT\Documents\HTK_Project\Bluetooth\UART.c"
  90  0000  1F00     R  	clr _count[0]
  90  0001  1F00     R  	clr _count[1]
  90  0002  2800     R  	jmp _L30
  90  0003              _L31:
  93  0003              #line 93 "C:\Users\IIIT\Documents\HTK_Project\Bluetooth\UART.c"
  93  0003              	fcall _RByte
  93  000A  0080     E  	mov ra,a
  93  000B  0F00     R  	mov a,low offset _buff
  93  000C  0300     R  	add a,_Receive_2[0]
  93  000D  0083        	mov mp,a
  93  000E  0F00     R  	mov a,high offset _buff
  93  000F  1300     R  	adc a,_Receive_2[1]
  93  0010  0084        	mov sbp,a
  93  0011  0700     E  	mov a,ra
  93  0012  0082        	mov ir,a
  90  0013              #line 90 "C:\Users\IIIT\Documents\HTK_Project\Bluetooth\UART.c"
  90  0013  1480     R  	inc _count[0]
  90  0014  3D0A        	sz z
  90  0015  1480     R  	inc _count[1]
  90  0016              _L30:
  90  0016  0700     R  	mov a,_count[0]
  90  0017  0080     R  	mov _Receive_2[0],a
  90  0018  0700     R  	mov a,_count[1]
  90  0019  0080     R  	mov _Receive_2[1],a
  90  001A  0F0F        	mov a,15
  90  001B  0200     R  	sub a,_Receive_2[0]
  90  001C  0F00        	mov a,0
  90  001D  1200     R  	sbc a,_Receive_2[1]
  90  001E  3C0A        	sz c
  90  001F  2800     R  	jmp _L31
  90  0020  0003        	ret
  90  0021              _Receive endp
  90  0021              #line 90 "C:\Users\IIIT\Documents\HTK_Project\Bluetooth\UART.c"
  90  0021              #pragma debug scope 1 1
  90  0021              public _Receive_num
  90  0021              #pragma debug scope 10 1
  98  0021              #line 98 "C:\Users\IIIT\Documents\HTK_Project\Bluetooth\UART.c"
"File: UART.c        Assembler  Version HGASM0202      Page 7

  98  0000              _Receive_num .section 'code'
  98  0000              _Receive_num proc
  98  0000              public _Receive_num_2
  98  0000  0006[           local _Receive_num_2 db 6 dup(?)	; 4,2
            00
            ]
  98  0006              #pragma debug variable 12 10 _Receive_num_2+0 "s"
  98  0006              #pragma debug pointer 44 7 10
  98  0006              #pragma debug pointer 44 7 10
  98  0006              #pragma debug variable 44 10 _Receive_num_2+2 "buf"
  98  0000  0700     R  	mov a,_Receive_num_2[0]
  98  0001  0300     R  	add a,_Receive_num_2[2]
  98  0002  0080     R  	mov _Receive_num_2[4],a
  98  0003  0700     R  	mov a,_Receive_num_2[1]
  98  0004  1300     R  	adc a,_Receive_num_2[3]
  98  0005  0080     R  	mov _Receive_num_2[5],a
  99  0006              #line 99 "C:\Users\IIIT\Documents\HTK_Project\Bluetooth\UART.c"
  99  0006  2800     R  	jmp _L33
  99  0007              _L34:
 101  0007              #line 101 "C:\Users\IIIT\Documents\HTK_Project\Bluetooth\UART.c"
 101  0007              	fcall _RByte
 101  000E  0080     E  	mov ra,a
 101  000F  0700     R  	mov a,_Receive_num_2[2]
 101  0010  0083        	mov mp,a
 101  0011  0700     R  	mov a,_Receive_num_2[3]
 101  0012  0084        	mov sbp,a
 101  0013  0700     E  	mov a,ra
 101  0014  0082        	mov ir,a
 102  0015              #line 102 "C:\Users\IIIT\Documents\HTK_Project\Bluetooth\UART.c"
 102  0015  1480     R  	inc _Receive_num_2[2]
 102  0016  3D0A        	sz z
 102  0017  1480     R  	inc _Receive_num_2[3]
 102  0018              _L33:
  99  0018              #line 99 "C:\Users\IIIT\Documents\HTK_Project\Bluetooth\UART.c"
  99  0018  0700     R  	mov a,_Receive_num_2[2]
  99  0019  0200     R  	sub a,_Receive_num_2[4]
  99  001A  0700     R  	mov a,_Receive_num_2[3]
  99  001B  1200     R  	sbc a,_Receive_num_2[5]
  99  001C  3B0A        	snz cz
  99  001D  2800     R  	jmp _L34
  99  001E  0003        	ret
  99  001F              _Receive_num endp
  99  001F              #line 99 "C:\Users\IIIT\Documents\HTK_Project\Bluetooth\UART.c"
  99  001F              #pragma debug scope 1 1
  99  001F              public _Receive_if
  99  001F              #pragma debug scope 11 1
 107  001F              #line 107 "C:\Users\IIIT\Documents\HTK_Project\Bluetooth\UART.c"
 107  0000              _Receive_if .section 'code'
 107  0000              _Receive_if proc
 107  0000              public _Receive_if_2
 107  0000  0002[           local _Receive_if_2 db 2 dup(?)	; 2,0
            00
            ]
 107  0002              #pragma debug pointer 45 7 11
 107  0002              #pragma debug pointer 45 7 11
 107  0002              #pragma debug variable 45 11 _Receive_if_2+0 "buf"
 107  0000              _L37:
 111  0000              #line 111 "C:\Users\IIIT\Documents\HTK_Project\Bluetooth\UART.c"
 111  0000              	fcall _RByte
 111  0007  0080     E  	mov ra,a
"File: UART.c        Assembler  Version HGASM0202      Page 8

 112  0008              #line 112 "C:\Users\IIIT\Documents\HTK_Project\Bluetooth\UART.c"
 112  0008  0700     E  	mov a,ra
 112  0009  0A0A        	sub a,10
 112  000A  3D0A        	sz z
 112  000B  2800     R  	jmp _L35
 116  000C              #line 116 "C:\Users\IIIT\Documents\HTK_Project\Bluetooth\UART.c"
 116  000C  0700     R  	mov a,_Receive_if_2[0]
 116  000D  0083        	mov mp,a
 116  000E  0700     R  	mov a,_Receive_if_2[1]
 116  000F  0084        	mov sbp,a
 116  0010  0700     E  	mov a,ra
 116  0011  0082        	mov ir,a
 117  0012              #line 117 "C:\Users\IIIT\Documents\HTK_Project\Bluetooth\UART.c"
 117  0012  1480     R  	inc _Receive_if_2[0]
 117  0013  3D0A        	sz z
 117  0014  1480     R  	inc _Receive_if_2[1]
 119  0015              #line 119 "C:\Users\IIIT\Documents\HTK_Project\Bluetooth\UART.c"
 119  0015  2800     R  	jmp _L37
 119  0016              _L35:
 119  0016  0003        	ret
 119  0017              _Receive_if endp
 119  0017              #line 119 "C:\Users\IIIT\Documents\HTK_Project\Bluetooth\UART.c"
 119  0017              #pragma debug scope 1 1
 119  0017              public _count
 119  0000              @HCCINIT	.section 'data'
  10  0000              #line 10 "C:\Users\IIIT\Documents\HTK_Project\Bluetooth\UART.c"
  10  0000              @HCCINIT_count .section 'data'
  10  0000              _count label byte
  10  0000              #pragma debug variable 12 1 _count "count"
  10  0000              	db 0
  10  0000              @ROMDATA_BASE .section inpage 'code'
  10  0000              	db 0
  10  0001              @HCCINIT_count .section 'data'
  10  0001              	db 0
  10  0001              @ROMDATA_BASE .section inpage 'code'
  10  0001              	db 0
  10  0002              @HCCINIT_count .section 'data'
  10  0002              public _Buff
   9  0002              #line 9 "C:\Users\IIIT\Documents\HTK_Project\Bluetooth\UART.c"
   9  0000              @HCCINIT_Buff .section 'data'
   9  0000              _Buff label byte
   9  0000              #pragma debug array 46 7 32 1
   9  0000              #pragma debug array 46 7 32 1
   9  0000              #pragma debug variable 46 1 _Buff "Buff"
   9  0000              	db 0
   9  0001              @ROMDATA_BASE .section inpage 'code'
   9  0001              	db 0
   9  0001              @HCCINIT_Buff .section 'data'
   9  0001              	db 0
   9  0002              @ROMDATA_BASE .section inpage 'code'
   9  0002              	db 0
   9  0002              @HCCINIT_Buff .section 'data'
   9  0002              	db 0
   9  0002              @ROMDATA_BASE .section inpage 'code'
   9  0002              	db 0
   9  0003              @HCCINIT_Buff .section 'data'
   9  0003              	db 0
   9  0003              @ROMDATA_BASE .section inpage 'code'
   9  0003              	db 0
   9  0004              @HCCINIT_Buff .section 'data'
"File: UART.c        Assembler  Version HGASM0202      Page 9

   9  0004              	db 0
   9  0003              @ROMDATA_BASE .section inpage 'code'
   9  0003              	db 0
   9  0005              @HCCINIT_Buff .section 'data'
   9  0005              	db 0
   9  0004              @ROMDATA_BASE .section inpage 'code'
   9  0004              	db 0
   9  0006              @HCCINIT_Buff .section 'data'
   9  0006              	db 0
   9  0004              @ROMDATA_BASE .section inpage 'code'
   9  0004              	db 0
   9  0007              @HCCINIT_Buff .section 'data'
   9  0007              	db 0
   9  0005              @ROMDATA_BASE .section inpage 'code'
   9  0005              	db 0
   9  0008              @HCCINIT_Buff .section 'data'
   9  0008              	db 0
   9  0005              @ROMDATA_BASE .section inpage 'code'
   9  0005              	db 0
   9  0009              @HCCINIT_Buff .section 'data'
   9  0009              	db 0
   9  0006              @ROMDATA_BASE .section inpage 'code'
   9  0006              	db 0
   9  000A              @HCCINIT_Buff .section 'data'
   9  000A              	db 0
   9  0006              @ROMDATA_BASE .section inpage 'code'
   9  0006              	db 0
   9  000B              @HCCINIT_Buff .section 'data'
   9  000B              	db 0
   9  0007              @ROMDATA_BASE .section inpage 'code'
   9  0007              	db 0
   9  000C              @HCCINIT_Buff .section 'data'
   9  000C              	db 0
   9  0007              @ROMDATA_BASE .section inpage 'code'
   9  0007              	db 0
   9  000D              @HCCINIT_Buff .section 'data'
   9  000D              	db 0
   9  0008              @ROMDATA_BASE .section inpage 'code'
   9  0008              	db 0
   9  000E              @HCCINIT_Buff .section 'data'
   9  000E              	db 0
   9  0008              @ROMDATA_BASE .section inpage 'code'
   9  0008              	db 0
   9  000F              @HCCINIT_Buff .section 'data'
   9  000F              	db 0
   9  0009              @ROMDATA_BASE .section inpage 'code'
   9  0009              	db 0
   9  0010              @HCCINIT_Buff .section 'data'
   9  0010              	db 0
   9  0009              @ROMDATA_BASE .section inpage 'code'
   9  0009              	db 0
   9  0011              @HCCINIT_Buff .section 'data'
   9  0011              	db 0
   9  000A              @ROMDATA_BASE .section inpage 'code'
   9  000A              	db 0
   9  0012              @HCCINIT_Buff .section 'data'
   9  0012              	db 0
   9  000A              @ROMDATA_BASE .section inpage 'code'
   9  000A              	db 0
   9  0013              @HCCINIT_Buff .section 'data'
"File: UART.c        Assembler  Version HGASM0202      Page 10

   9  0013              	db 0
   9  000B              @ROMDATA_BASE .section inpage 'code'
   9  000B              	db 0
   9  0014              @HCCINIT_Buff .section 'data'
   9  0014              	db 0
   9  000B              @ROMDATA_BASE .section inpage 'code'
   9  000B              	db 0
   9  0015              @HCCINIT_Buff .section 'data'
   9  0015              	db 0
   9  000C              @ROMDATA_BASE .section inpage 'code'
   9  000C              	db 0
   9  0016              @HCCINIT_Buff .section 'data'
   9  0016              	db 0
   9  000C              @ROMDATA_BASE .section inpage 'code'
   9  000C              	db 0
   9  0017              @HCCINIT_Buff .section 'data'
   9  0017              	db 0
   9  000D              @ROMDATA_BASE .section inpage 'code'
   9  000D              	db 0
   9  0018              @HCCINIT_Buff .section 'data'
   9  0018              	db 0
   9  000D              @ROMDATA_BASE .section inpage 'code'
   9  000D              	db 0
   9  0019              @HCCINIT_Buff .section 'data'
   9  0019              	db 0
   9  000E              @ROMDATA_BASE .section inpage 'code'
   9  000E              	db 0
   9  001A              @HCCINIT_Buff .section 'data'
   9  001A              	db 0
   9  000E              @ROMDATA_BASE .section inpage 'code'
   9  000E              	db 0
   9  001B              @HCCINIT_Buff .section 'data'
   9  001B              	db 0
   9  000F              @ROMDATA_BASE .section inpage 'code'
   9  000F              	db 0
   9  001C              @HCCINIT_Buff .section 'data'
   9  001C              	db 0
   9  000F              @ROMDATA_BASE .section inpage 'code'
   9  000F              	db 0
   9  001D              @HCCINIT_Buff .section 'data'
   9  001D              	db 0
   9  0010              @ROMDATA_BASE .section inpage 'code'
   9  0010              	db 0
   9  001E              @HCCINIT_Buff .section 'data'
   9  001E              	db 0
   9  0010              @ROMDATA_BASE .section inpage 'code'
   9  0010              	db 0
   9  001F              @HCCINIT_Buff .section 'data'
   9  001F              	db 0
   9  0011              @ROMDATA_BASE .section inpage 'code'
   9  0011              	db 0
   9  0020              @HCCINIT_Buff .section 'data'
   8  0020              #line 8 "C:\Users\IIIT\Documents\HTK_Project\Bluetooth\UART.c"
   8  0020              public _buff
   8  0000              @HCCINIT0_buff .section 'data'
   8  0000  0010[       _buff	db 16 dup(0)
            00
            ]
   8  0010              #pragma debug array 47 7 16 1
   8  0010              #pragma debug array 47 7 16 1
"File: UART.c        Assembler  Version HGASM0202      Page 11

   8  0010              #pragma debug variable 47 1 _buff "buff"
   8  0010              
   8  0000              @HCCINIT .section 'data'
   8  0000              public _flag
   7  0000              #line 7 "C:\Users\IIIT\Documents\HTK_Project\Bluetooth\UART.c"
   7  0000              @HCCINIT_flag .section 'data'
   7  0000              _flag label byte
   7  0000              #pragma debug variable 12 1 _flag "flag"
   7  0000              	db 0
   7  0011              @ROMDATA_BASE .section inpage 'code'
   7  0011              	db 0
   7  0001              @HCCINIT_flag .section 'data'
   7  0001              	db 0
   7  0012              @ROMDATA_BASE .section inpage 'code'
   7  0012              	db 0
   7  0002              @HCCINIT_flag .section 'data'
   7  0002              #pragma debug struct_end
   7  0002              #pragma debug struct_end
   7  0002              #pragma debug union_end
   7  0002              #pragma debug union_end
   7  0002              #pragma debug variable 49 1 ___pc "__pc" 1
   7  0002              #pragma debug struct_end
   7  0002              #pragma debug struct_end
   7  0002              #pragma debug union_end
   7  0002              #pragma debug union_end
   7  0002              #pragma debug variable 51 1 ___tm0c0 "__tm0c0" 1
   7  0002              extern _TM0_INIT:near
   7  0002              
   7  0002              ; 
   7  0002              ; Generated by holtek-gcc v3.18, Wed Oct 31 19:08:40 2018
   7  0002              ; Rebuild 521
   7  0002              ; end of file


        0 Errors, 0