"File: Sevro_TM_button.c  Assembler  Version HGASM0202      Page 1


   1  0000              ; Generated by holtek-gcc v3.18, Mon Nov 12 17:38:30 2018
   2  0000              ; 
   3  0000              ; Configuration:
   4  0000              ;       with long instruction
   5  0000              ;       Multi-ROM, Multi-RAM
   6  0000              ;       bits_per_rom_unit:16
   7  0000              ;       with mp1
   8  0000              ;       with tbhp, address(0x9)
   9  0000              ;          Use tabrd-const
  10  0000              ;       
  11  0000              ; SFR address of long-instruction arch:
  12  0000              ;    mp0 = -1,1,0
  13  0000              ;    mp1 = 4,3,2
  14  0000              ;    mp2 = 14,13,12
  15  0000              ;    tbp = 9,7,8
  16  0000              ;    acc = 5
  17  0000              ;    pcl = 6
  18  0000              ;    status = 10
  19  0000              ;    bp = 11
  20  0000              ;    intc = 48
  21  0000              ;       
  22  0000              ;       
  23  0000              ; use 'tabrdc' instead of 'tabrd'
  24  0000              ;       
  25  0000              
  26  0000              #pragma translator "holtek-gcc 4.6.4" "3.18" "build 20130711"
  27  0000              ; Rebuild 521
  28  0000              
  29  0000              ir equ [2]
  30  0000              mp equ [3]
  31  0000              sbp equ [4]
  32  0000              acc equ [5]
  33  0000              bp equ [11]
  34  0000              tblp equ [7]
  35  0000              tbhp equ [9]
  36  0000              status equ [10]
  37  0000              c equ [10].0
  38  0000              ac equ [10].1
  39  0000              z equ [10].2
  40  0000              ov equ [10].3
  41  0000              cz equ [10].6
  42  0000              sc equ [10].7
  43  0000              intc equ [48]
  44  0000              
  45  0000              extern ra:byte
  46  0000              extern rb:byte
  47  0000              extern rc:byte
  48  0000              extern rd:byte
  49  0000              extern re:byte
  50  0000              extern rf:byte
  51  0000              extern rg:byte
  52  0000              extern rh:byte
  53  0000              extern _Crom2Prom:near
  54  0000              extern _Crom2PromNext:near
  55  0000              
  56  0000              RAMBANK 0 @BITDATASEC, @BITDATASEC1
  57  0000              @HCCINIT	.section 'data'
  58  0000              @HCCINIT0	.section 'data'
  59  0000              @BITDATASEC	 .section 'data'
"File: Sevro_TM_button.ASM  Assembler  Version HGASM0202      Page 2

  60  0000              @BITDATASEC1	 .section 'data'
  61  0000              
  62  0000              #pragma debug scope 1 1
  63  0000              	extern __DELAY3:near
  64  0000              	extern __DELAYX3:near
  65  0000              	extern __DELAYX6:near
  66  0000              	extern __DELAYY5:near
  67  0000              	extern __DELAYY3:near
  68  0000              	extern _builtin_holtek_delay_2:byte
  69  0000              ___tm4c0 equ [336]
  70  0000              ___tm4c1 equ [337]
  71  0000              ___tm4al equ [340]
  72  0000              ___tm4ah equ [341]
  73  0000              ___tm0c0 equ [94]
  74  0000              ___tm0c1 equ [95]
  75  0000              ___tm2c0 equ [81]
  76  0000              ___tm2c1 equ [82]
  77  0000              ___intc3 equ [51]
  78  0000              ___mfi4 equ [56]
  79  0000              public _TM_Set
  80  0000              #pragma debug scope 2 1

 101  0000              #line 101 "D:\Users\IIIT\Desktop\Hall0\Sevro_TM_button.c"
 101  0000              _TM_Set .section 'code'
 101  0000              _TM_Set proc
 102  0000              #line 102 "D:\Users\IIIT\Desktop\Hall0\Sevro_TM_button.c"
 102  0000  0F20        	mov a,32
 102  0001  80D0 0001   	lmov [336],a
 103  0003              #line 103 "D:\Users\IIIT\Desktop\Hall0\Sevro_TM_button.c"
 103  0003  0FC1        	mov a,193
 103  0004  80D1 0001   	lmov [337],a
 104  0006              #line 104 "D:\Users\IIIT\Desktop\Hall0\Sevro_TM_button.c"
 104  0006  0F88        	mov a,136
 104  0007  80D4 0001   	lmov [340],a
 104  0009  0F13        	mov a,19
 104  000A  80D5 0001   	lmov [341],a
 105  000C              #line 105 "D:\Users\IIIT\Desktop\Hall0\Sevro_TM_button.c"
 105  000C  0F10        	mov a,16
 105  000D  00DE        	mov [94],a
 106  000E              #line 106 "D:\Users\IIIT\Desktop\Hall0\Sevro_TM_button.c"
 106  000E  0FC1        	mov a,193
 106  000F  00DF        	mov [95],a
 107  0010              #line 107 "D:\Users\IIIT\Desktop\Hall0\Sevro_TM_button.c"
 107  0010  1F51        	clr [81]
 107  0011  0F31        	mov a,49
 107  0012  00D2        	mov [82],a
 108  0013              #line 108 "D:\Users\IIIT\Desktop\Hall0\Sevro_TM_button.c"
 108  0013  3133        	set [51].2
 108  0014  30B8        	set [56].1
 109  0015              #line 109 "D:\Users\IIIT\Desktop\Hall0\Sevro_TM_button.c"
 109  0015  B1D0 0001   	lset [336].3
 110  0017              #line 110 "D:\Users\IIIT\Desktop\Hall0\Sevro_TM_button.c"
 110  0017  1F00     R  	clr _SEC[0]
 110  0018  0F64        	mov a,100
 110  0019  0080     R  	mov _R1sec[0],a
 110  001A  0F01        	mov a,1
 110  001B  0080     R  	mov _AD10ms[0],a
 110  001C  0F14        	mov a,20
 110  001D  0080     R  	mov _Hall200ms[0],a
 110  001E  0003        	ret
"File: Sevro_TM_button.c  Assembler  Version HGASM0202      Page 3

 110  001F              _TM_Set endp
 110  001F              #line 110 "D:\Users\IIIT\Desktop\Hall0\Sevro_TM_button.c"
 110  001F              #pragma debug scope 1 1
 110  001F              ___pac equ [19]
 110  001F              ___papu equ [17]
 110  001F              ___integ equ [57]
 110  001F              ___intc0 equ [48]
 110  001F              ___ifs0 equ [328]
 110  001F              ___ifs1 equ [329]
 110  001F              public _Interrupt_Set
 110  001F              #pragma debug scope 3 1
 113  001F              #line 113 "D:\Users\IIIT\Desktop\Hall0\Sevro_TM_button.c"
 113  0000              _Interrupt_Set .section 'code'
 113  0000              _Interrupt_Set proc
 114  0000              #line 114 "D:\Users\IIIT\Desktop\Hall0\Sevro_TM_button.c"
 114  0000  3193        	set [19].3
 114  0001  3191        	set [17].3
 115  0002              #line 115 "D:\Users\IIIT\Desktop\Hall0\Sevro_TM_button.c"
 115  0002  3213        	set [19].4
 115  0003  3211        	set [17].4
 116  0004              #line 116 "D:\Users\IIIT\Desktop\Hall0\Sevro_TM_button.c"
 116  0004  0F06        	mov a,6
 116  0005  00B9        	mov [57],a
 117  0006              #line 117 "D:\Users\IIIT\Desktop\Hall0\Sevro_TM_button.c"
 117  0006  30B0        	set [48].1
 118  0007              #line 118 "D:\Users\IIIT\Desktop\Hall0\Sevro_TM_button.c"
 118  0007  9F48 0001   	lclr [328]
 119  0009              #line 119 "D:\Users\IIIT\Desktop\Hall0\Sevro_TM_button.c"
 119  0009  3130        	set [48].2
 120  000A              #line 120 "D:\Users\IIIT\Desktop\Hall0\Sevro_TM_button.c"
 120  000A  9F49 0001   	lclr [329]
 120  000C  0003        	ret
 120  000D              _Interrupt_Set endp
 120  000D              #line 120 "D:\Users\IIIT\Desktop\Hall0\Sevro_TM_button.c"
 120  000D              #pragma debug scope 1 1
 120  000D              ___pec equ [35]
 120  000D              ___pepu equ [33]
 120  000D              ___pds2 equ [366]
 120  000D              ___tm2rp equ [87]
 120  000D              public _Moto_Set
 120  000D              #pragma debug scope 4 1
 123  000D              #line 123 "D:\Users\IIIT\Desktop\Hall0\Sevro_TM_button.c"
 123  0000              _Moto_Set .section 'code'
 123  0000              _Moto_Set proc
 124  0000              #line 124 "D:\Users\IIIT\Desktop\Hall0\Sevro_TM_button.c"
 124  0000  3023        	set [35].0
 124  0001  3021        	set [33].0
 125  0002              #line 125 "D:\Users\IIIT\Desktop\Hall0\Sevro_TM_button.c"
 125  0002  30A3        	set [35].1
 125  0003  30A1        	set [33].1
 126  0004              #line 126 "D:\Users\IIIT\Desktop\Hall0\Sevro_TM_button.c"
 126  0004  0F01        	mov a,1
 126  0005  80EE 0001   	lmov [366],a
 127  0007              #line 127 "D:\Users\IIIT\Desktop\Hall0\Sevro_TM_button.c"
 127  0007  1F51        	clr [81]
 128  0008              #line 128 "D:\Users\IIIT\Desktop\Hall0\Sevro_TM_button.c"
 128  0008  0FA8        	mov a,168
 128  0009  00D2        	mov [82],a
 129  000A              #line 129 "D:\Users\IIIT\Desktop\Hall0\Sevro_TM_button.c"
 129  000A  0FA0        	mov a,160
"File: Sevro_TM_button.c  Assembler  Version HGASM0202      Page 4

 129  000B  00D7        	mov [87],a
 130  000C              #line 130 "D:\Users\IIIT\Desktop\Hall0\Sevro_TM_button.c"
 130  000C  31D1        	set [81].3
 130  000D  0003        	ret
 130  000E              _Moto_Set endp
 130  000E              #line 130 "D:\Users\IIIT\Desktop\Hall0\Sevro_TM_button.c"
 130  000E              #pragma debug scope 1 1
 130  000E              ___tm2al equ [85]
 130  000E              ___tm2ah equ [86]
 130  000E              public _Moto_C
 130  000E              #pragma debug scope 5 1
 133  000E              #line 133 "D:\Users\IIIT\Desktop\Hall0\Sevro_TM_button.c"
 133  0000              _Moto_C .section 'code'
 133  0000              _Moto_C proc
 133  0000  00              local _Moto_C_2 db 1 dup(?)	; 0,1
 133  0000  0080     R  	mov _Moto_C_2[0],a
 133  0001              #pragma debug variable 8 5 _Moto_C_2+0 "angle"
 134  0001              #line 134 "D:\Users\IIIT\Desktop\Hall0\Sevro_TM_button.c"
 134  0001  0700     R  	mov a,_Index[0]  
 134  0002  0080     E  	mov _builtin_holtek_mulhi3_2[0],a  
 134  0003  0700     R  	mov a,_Index[1]  
 134  0004  0080     E  	mov _builtin_holtek_mulhi3_2[1],a
 134  0005  0F14        	mov a,20  
 134  0006  0080     E  	mov _builtin_holtek_mulhi3_2[2],a  
 134  0007  1F00     E  	clr _builtin_holtek_mulhi3_2[3]
 134  0008              	fcall _builtin_holtek_mulhi3
 134  000F  0700     E  	mov a,_builtin_holtek_mulhi3_2[4]  
 134  0010  0080     E  	mov rd,a  
 134  0011  0700     E  	mov a,_builtin_holtek_mulhi3_2[5]  
 134  0012  0080     E  	mov re,a
 134  0013  0FE8        	mov a,232
 134  0014  0380     E  	addm a,rd
 134  0015  0F03        	mov a,3
 134  0016  1380     E  	adcm a,re
 135  0017              #line 135 "D:\Users\IIIT\Desktop\Hall0\Sevro_TM_button.c"
 135  0017  0700     E  	mov a,rd
 135  0018  0080     E  	mov rb,a
 135  0019  0700     E  	mov a,re
 135  001A  0080     E  	mov rc,a
 135  001B  0FFF        	mov a,255  
 135  001C  0680     E  	andm a,rb  
 135  001D  0F80        	mov a,128  
 135  001E  0680     E  	andm a,rc
 135  001F  3800     E  	snz rc.7
 135  0020  2800     R  	jmp _L5
 135  0021              #line 135 "D:\Users\IIIT\Desktop\Hall0\Sevro_TM_button.c"
 135  0021  0FFF        	mov a,255
 135  0022  0380     E  	addm a,rb
 135  0023  0FFF        	mov a,255
 135  0024  1380     E  	adcm a,rc
 135  0025  0FFF        	mov a,255
 135  0026  0580     E  	orm a,rc
 135  0027  0F00        	mov a,0
 135  0028  0580     E  	orm a,rb
 135  0029  1480     E  	inc rb
 135  002A  3D0A        	sz z
 135  002B  1480     E  	inc rc
 135  002C              _L5:
 135  002C  0700     E  	mov a,rb
 135  002D  00D5        	mov [85],a
"File: Sevro_TM_button.c  Assembler  Version HGASM0202      Page 5

 136  002E              #line 136 "D:\Users\IIIT\Desktop\Hall0\Sevro_TM_button.c"
 136  002E  0700     E  	mov a,rd
 136  002F  0080     E  	mov rb,a
 136  0030  0700     E  	mov a,re
 136  0031  0080     E  	mov rc,a
 136  0032  3800     E  	snz re.7
 136  0033  2800     R  	jmp _L6
 136  0034  0FFF        	mov a,255
 136  0035  0300     E  	add a,rd
 136  0036  0080     E  	mov rb,a
 136  0037  0F00        	mov a,0
 136  0038  1300     E  	adc a,re
 136  0039  0080     E  	mov rc,a
 136  003A              _L6:
 136  003A  0700     E  	mov a,rc
 136  003B  00D6        	mov [86],a
 137  003C              #line 137 "D:\Users\IIIT\Desktop\Hall0\Sevro_TM_button.c"
 137  003C  0700     E  	mov a,rd
 137  003D  0080     E  	mov ra,a
 137  003E  0700     E  	mov a,re
 137  003F  0080     E  	mov rb,a
 137  0040  1A00     E  	rlca rb
 137  0041  1B80     E  	rrc rb
 137  0042  1B80     E  	rrc ra
 137  0043  0700     E  	mov a,ra
 137  0044  0080     R  	mov _temp[0],a
 137  0045  0700     E  	mov a,rb
 137  0046  0080     R  	mov _temp[1],a
 138  0047              #line 138 "D:\Users\IIIT\Desktop\Hall0\Sevro_TM_button.c"
 138  0047  0700     R  	mov a,_Moto_C_2[0]
 138  0048  0080     R  	mov _Index[0],a
 138  0049  1F00     R  	clr _Index[1]
 138  004A  0003        	ret
 138  004B              _Moto_C endp
 138  004B              #line 138 "D:\Users\IIIT\Desktop\Hall0\Sevro_TM_button.c"
 138  004B              #pragma debug scope 1 1
 138  004B              ___adcr0 equ [104]
 138  004B              ___adcr1 equ [105]
 138  004B              ___pas0 equ [352]
 138  004B              ___pas3 equ [355]
 138  004B              public _AD_Set
 138  004B              #pragma debug scope 6 1
 141  004B              #line 141 "D:\Users\IIIT\Desktop\Hall0\Sevro_TM_button.c"
 141  0000              _AD_Set .section 'code'
 141  0000              _AD_Set proc
 142  0000              #line 142 "D:\Users\IIIT\Desktop\Hall0\Sevro_TM_button.c"
 142  0000  0F01        	mov a,1
 142  0001  00E8        	mov [104],a
 143  0002              #line 143 "D:\Users\IIIT\Desktop\Hall0\Sevro_TM_button.c"
 143  0002  0F66        	mov a,102
 143  0003  00E9        	mov [105],a
 144  0004              #line 144 "D:\Users\IIIT\Desktop\Hall0\Sevro_TM_button.c"
 144  0004  0F30        	mov a,48
 144  0005  80E0 0001   	lmov [352],a
 145  0007              #line 145 "D:\Users\IIIT\Desktop\Hall0\Sevro_TM_button.c"
 145  0007  0F03        	mov a,3
 145  0008  80E3 0001   	lmov [355],a
 145  000A  0003        	ret
 145  000B              _AD_Set endp
 145  000B              #line 145 "D:\Users\IIIT\Desktop\Hall0\Sevro_TM_button.c"
"File: Sevro_TM_button.c  Assembler  Version HGASM0202      Page 6

 145  000B              #pragma debug scope 1 1
 145  000B              public _button_up
 145  000B              #pragma debug scope 7 1
 149  000B              #line 149 "D:\Users\IIIT\Desktop\Hall0\Sevro_TM_button.c"
 149  000B              rombank 0 @button_up_code
 149  0000              @button_up_code .section at 4 'code'
 149  0000  0080     E  	mov r1,a
 149  0001  070B        	mov a,bp
 149  0002  1F0B        	clr bp
 149  0003  2800     R  	jmp _button_up
 149  0004              ROMBANK 0 _button_up
 149  0004              #pragma debug scope 1 1
 149  0004              @dummy4 endp
 149  0004              #pragma debug scope 8 1
 149  0000              _button_up .section 'code'
 149  0000              _button_up proc
 149  0000  0080     E  	mov r2,a
 149  0001  070A        	mov a, status
 149  0002  0080     E  	mov r3,a
 150  0003              #line 150 "D:\Users\IIIT\Desktop\Hall0\Sevro_TM_button.c"
 150  0003  1480     R  	inc _HallData[0]
 150  0004  3D0A        	sz z
 150  0005  1480     R  	inc _HallData[1]
 151  0006              #line 151 "D:\Users\IIIT\Desktop\Hall0\Sevro_TM_button.c"
 151  0006  3630        	clr [48].4
 151  0007  0700     E  	mov a,r2
 151  0008  008B        	mov bp,a
 151  0009  0700     E  	mov a,r3
 151  000A  008A        	mov status,a
 151  000B  0700     E  	mov a,r1
 151  000C  0004        	reti
 151  000D              _button_up endp
 151  000D              
 151  000D              #line 151 "D:\Users\IIIT\Desktop\Hall0\Sevro_TM_button.c"
 151  000D              #pragma debug scope 1 1
 151  000D              ___pb equ [22]
 151  000D              public _Button_Down
 151  000D              #pragma debug scope 9 1
 155  000D              #line 155 "D:\Users\IIIT\Desktop\Hall0\Sevro_TM_button.c"
 155  000D              rombank 0 @Button_Down_code
 155  0000              @Button_Down_code .section at 8 'code'
 155  0000  0080     E  	mov r1,a
 155  0001  070B        	mov a,bp
 155  0002  1F0B        	clr bp
 155  0003  2800     R  	jmp _Button_Down
 155  0004              ROMBANK 0 _Button_Down
 155  0004              #pragma debug scope 1 1
 155  0004              @dummy8 endp
 155  0004              #pragma debug scope 10 1
 155  0000              _Button_Down .section 'code'
 155  0000              _Button_Down proc
 155  0000  0080     E  	mov r2,a
 155  0001  070A        	mov a, status
 155  0002  0080     E  	mov r3,a
 156  0003              #line 156 "D:\Users\IIIT\Desktop\Hall0\Sevro_TM_button.c"
 156  0003  3396        	set [22].7
 157  0004              #line 157 "D:\Users\IIIT\Desktop\Hall0\Sevro_TM_button.c"
 157  0004  36B0        	clr [48].5
 157  0005  0700     E  	mov a,r2
 157  0006  008B        	mov bp,a
"File: Sevro_TM_button.c  Assembler  Version HGASM0202      Page 7

 157  0007  0700     E  	mov a,r3
 157  0008  008A        	mov status,a
 157  0009  0700     E  	mov a,r1
 157  000A  0004        	reti
 157  000B              _Button_Down endp
 157  000B              
 157  000B              #line 157 "D:\Users\IIIT\Desktop\Hall0\Sevro_TM_button.c"
 157  000B              #pragma debug scope 1 1
 157  000B              ___adrh equ [107]
 157  000B              ___adrl equ [106]
 157  000B              public _ISR_STM
 157  000B              #pragma debug scope 11 1
 160  000B              #line 160 "D:\Users\IIIT\Desktop\Hall0\Sevro_TM_button.c"
 160  000B              rombank 0 @ISR_STM_code
 160  0000              @ISR_STM_code .section at 56 'code'
 160  0000  0080     E  	mov r1,a
 160  0001  070B        	mov a,bp
 160  0002  1F0B        	clr bp
 160  0003  2800     R  	jmp _ISR_STM
 160  0004              ROMBANK 0 _ISR_STM
 160  0004              #pragma debug scope 1 1
 160  0004              @dummy56 endp
 160  0004              #pragma debug scope 12 1
 160  0000              _ISR_STM .section 'code'
 160  0000              _ISR_STM proc
 160  0000  0080     E  	mov r2,a
 160  0001  070A        	mov a, status
 160  0002  0080     E  	mov r3,a
 161  0003              #line 161 "D:\Users\IIIT\Desktop\Hall0\Sevro_TM_button.c"
 161  0003  1500     R  	deca _AD10ms[0]
 161  0004  0080     E  	mov ra,a
 161  0005  1E00     E  	snz ra
 161  0006  2800     R  	jmp _L12
 161  0007              #line 161 "D:\Users\IIIT\Desktop\Hall0\Sevro_TM_button.c"
 161  0007  0700     E  	mov a,ra
 161  0008  0080     R  	mov _AD10ms[0],a
 161  0009  2800     R  	jmp _L13
 161  000A              _L12:
 162  000A              #line 162 "D:\Users\IIIT\Desktop\Hall0\Sevro_TM_button.c"
 162  000A  0F01        	mov a,1
 162  000B  0080     R  	mov _AD10ms[0],a
 163  000C              #line 163 "D:\Users\IIIT\Desktop\Hall0\Sevro_TM_button.c"
 163  000C  33E8        	set [104].7
 163  000D  37E8        	clr [104].7
 164  000E              #line 164 "D:\Users\IIIT\Desktop\Hall0\Sevro_TM_button.c"
 164  000E              ;# 164 "D:\Users\IIIT\Desktop\Hall0\Sevro_TM_button.c" 1
 164  000E  0000        	nop
 165  000F              #line 165 "D:\Users\IIIT\Desktop\Hall0\Sevro_TM_button.c"
 165  000F  076B        	mov a,[107]
 165  0010  0080     R  	mov _AxisXH[0],a
 166  0011              #line 166 "D:\Users\IIIT\Desktop\Hall0\Sevro_TM_button.c"
 166  0011  076A        	mov a,[106]
 166  0012  0080     R  	mov _AxisXL[0],a
 166  0013              _L13:
 184  0013              #line 184 "D:\Users\IIIT\Desktop\Hall0\Sevro_TM_button.c"
 184  0013  36B8        	clr [56].5
 184  0014  0700     E  	mov a,r2
 184  0015  008B        	mov bp,a
 184  0016  0700     E  	mov a,r3
 184  0017  008A        	mov status,a
"File: Sevro_TM_button.c  Assembler  Version HGASM0202      Page 8

 184  0018  0700     E  	mov a,r1
 184  0019  0004        	reti
 184  001A              _ISR_STM endp
 184  001A              
 184  001A              #line 184 "D:\Users\IIIT\Desktop\Hall0\Sevro_TM_button.c"
 184  001A              #pragma debug scope 1 1
 184  001A              public _Delay100us
 184  001A              #pragma debug scope 13 1
 187  001A              #line 187 "D:\Users\IIIT\Desktop\Hall0\Sevro_TM_button.c"
 187  0000              _Delay100us .section 'code'
 187  0000              _Delay100us proc
 187  0000              public _Delay100us_2
 187  0000  0002[           local _Delay100us_2 db 2 dup(?)	; 2,0
            00
            ]
 187  0002              #pragma debug variable 10 13 _Delay100us_2+0 "del"
 189  0002              #line 189 "D:\Users\IIIT\Desktop\Hall0\Sevro_TM_button.c"
 189  0000  1F00     E  	clr rb
 189  0001  1F00     E  	clr rc
 189  0002              _L15:
 189  0002              #line 189 "D:\Users\IIIT\Desktop\Hall0\Sevro_TM_button.c"
 189  0002  0700     E  	mov a,rb
 189  0003  0200     R  	sub a,_Delay100us_2[0]
 189  0004  0700     E  	mov a,rc
 189  0005  1200     R  	sbc a,_Delay100us_2[1]
 189  0006  3F0A        	sz cz
 189  0007  2800     R  	jmp _L14
 189  0008  1F00     E  	clr ra
 189  0009              _L18:
 191  0009              #line 191 "D:\Users\IIIT\Desktop\Hall0\Sevro_TM_button.c"
 191  0009              ;# 191 "D:\Users\IIIT\Desktop\Hall0\Sevro_TM_button.c" 1
 191  0009  0000        	nop
 191  000A  1480     E  	inc ra
 190  000B              #line 190 "D:\Users\IIIT\Desktop\Hall0\Sevro_TM_button.c"
 190  000B  0700     E  	mov a,ra
 190  000C  0A1A        	sub a,26
 190  000D  390A        	snz z
 190  000E  2800     R  	jmp _L18
 189  000F              #line 189 "D:\Users\IIIT\Desktop\Hall0\Sevro_TM_button.c"
 189  000F  1480     E  	inc rb
 189  0010  3D0A        	sz z
 189  0011  1480     E  	inc rc
 189  0012  2800     R  	jmp _L15
 189  0013              _L14:
 189  0013  0003        	ret
 189  0014              _Delay100us endp
 189  0014              #line 189 "D:\Users\IIIT\Desktop\Hall0\Sevro_TM_button.c"
 189  0014              #pragma debug scope 1 1
 189  0014              public _delay_ms
 189  0014              #pragma debug scope 14 1
 194  0014              #line 194 "D:\Users\IIIT\Desktop\Hall0\Sevro_TM_button.c"
 194  0000              _delay_ms .section 'code'
 194  0000              _delay_ms proc
 194  0000  00              local _delay_ms_2 db 1 dup(?)	; 0,1
 194  0000  0080     R  	mov _delay_ms_2[0],a
 194  0001              #pragma debug variable 8 14 _delay_ms_2+0 "del"
 196  0001              #line 196 "D:\Users\IIIT\Desktop\Hall0\Sevro_TM_button.c"
 196  0001  1F00     E  	clr ra
 196  0002  2800     R  	jmp _L20
 196  0003              _L21:
"File: Sevro_TM_button.c  Assembler  Version HGASM0202      Page 9

 197  0003              #line 197 "D:\Users\IIIT\Desktop\Hall0\Sevro_TM_button.c"
 197  0003              ;# 197 "D:\Users\IIIT\Desktop\Hall0\Sevro_TM_button.c" 1
 197  0003              	IF 2000>263690
 197  0003              ;# 197 "D:\Users\IIIT\Desktop\Hall0\Sevro_TM_button.c" 1
 197  0003              	ERRMESSAGE 'the value 2000of the argument exceeds the maxinum 263690'
 197  0003              	ENDIF
 197  0003              ;# 197 "D:\Users\IIIT\Desktop\Hall0\Sevro_TM_button.c" 1
 197  0003              	IF 2000<0
 197  0003              ;# 197 "D:\Users\IIIT\Desktop\Hall0\Sevro_TM_button.c" 1
 197  0003              	ERRMESSAGE 'the value 2000 of the argument exceeds the mininum 0'
 197  0003              	ENDIF
 197  0003              ;# 197 "D:\Users\IIIT\Desktop\Hall0\Sevro_TM_button.c" 1
 197  0003              	IF 2000==0
 197  0003              ;# 197 "D:\Users\IIIT\Desktop\Hall0\Sevro_TM_button.c" 1
 197  0003              	JMP $
 197  0003              	ENDIF
 197  0003              ;# 197 "D:\Users\IIIT\Desktop\Hall0\Sevro_TM_button.c" 1
 197  0003              	IF (2000>=1) AND (2000<( 4 + __PBP__ * 2))
 197  0003              ;# 197 "D:\Users\IIIT\Desktop\Hall0\Sevro_TM_button.c" 1
 197  0003              	NOP
 197  0003              	ENDIF
 197  0003              ;# 197 "D:\Users\IIIT\Desktop\Hall0\Sevro_TM_button.c" 1
 197  0003              	IF (2000>=2) AND (2000<( 4 + __PBP__ * 2))
 197  0003              ;# 197 "D:\Users\IIIT\Desktop\Hall0\Sevro_TM_button.c" 1
 197  0003              	NOP
 197  0003              	ENDIF
 197  0003              ;# 197 "D:\Users\IIIT\Desktop\Hall0\Sevro_TM_button.c" 1
 197  0003              	IF (2000>=3) AND (2000<( 4 + __PBP__ * 2))
 197  0003              ;# 197 "D:\Users\IIIT\Desktop\Hall0\Sevro_TM_button.c" 1
 197  0003              	NOP
 197  0003              	ENDIF
 197  0003              ;# 197 "D:\Users\IIIT\Desktop\Hall0\Sevro_TM_button.c" 1
 197  0003              	IF (2000>=4) AND (2000<( 4 + __PBP__ * 2)) AND ( __PBP__ > 0 )
 197  0003              ;# 197 "D:\Users\IIIT\Desktop\Hall0\Sevro_TM_button.c" 1
 197  0003              	NOP
 197  0003              	ENDIF
 197  0003              ;# 197 "D:\Users\IIIT\Desktop\Hall0\Sevro_TM_button.c" 1
 197  0003              	IF (2000>=5) AND (2000<( 4 + __PBP__ * 2)) AND ( __PBP__ > 0 )
 197  0003              ;# 197 "D:\Users\IIIT\Desktop\Hall0\Sevro_TM_button.c" 1
 197  0003              	NOP
 197  0003              	ENDIF
 197  0003              ;# 197 "D:\Users\IIIT\Desktop\Hall0\Sevro_TM_button.c" 1
 197  0003              	IF (2000>=6) AND (2000<( 4 + __PBP__ * 2))  AND ( __PBP__ > 1 )
 197  0003              ;# 197 "D:\Users\IIIT\Desktop\Hall0\Sevro_TM_button.c" 1
 197  0003              	NOP
 197  0003              	ENDIF
 197  0003              ;# 197 "D:\Users\IIIT\Desktop\Hall0\Sevro_TM_button.c" 1
 197  0003              	IF (2000>=7) AND (2000<( 4 + __PBP__ * 2))  AND ( __PBP__ > 1 )
 197  0003              ;# 197 "D:\Users\IIIT\Desktop\Hall0\Sevro_TM_button.c" 1
 197  0003              	NOP
 197  0003              	ENDIF
 197  0003              ;# 197 "D:\Users\IIIT\Desktop\Hall0\Sevro_TM_button.c" 1
 197  0003              	IF (2000>=8) AND (2000<( 4 + __PBP__ * 2))  AND ( __PBP__ > 2 )
 197  0003              ;# 197 "D:\Users\IIIT\Desktop\Hall0\Sevro_TM_button.c" 1
 197  0003              	NOP
 197  0003              	ENDIF
 197  0003              ;# 197 "D:\Users\IIIT\Desktop\Hall0\Sevro_TM_button.c" 1
 197  0003              	IF (2000==9)  AND ( __PBP__ > 2 )
 197  0003              ;# 197 "D:\Users\IIIT\Desktop\Hall0\Sevro_TM_button.c" 1
 197  0003              	NOP
"File: Sevro_TM_button.c  Assembler  Version HGASM0202      Page 10

 197  0003              	ENDIF
 197  0003              ;# 197 "D:\Users\IIIT\Desktop\Hall0\Sevro_TM_button.c" 1
 197  0003              	IF (2000< ( 8 + __PBP__ * 2)) AND (2000>( 3 + __PBP__ * 2))
 197  0003              ;# 197 "D:\Users\IIIT\Desktop\Hall0\Sevro_TM_button.c" 1
 197  0003              	fcall __DELAY3 + ( 7 + __PBP__ * 2) -2000
 197  0003              	ENDIF
 197  0003              ;# 197 "D:\Users\IIIT\Desktop\Hall0\Sevro_TM_button.c" 1
 197  0003              	IF (2000< ( 0404h + __PBP__ * 2)) AND (2000>( 7 + __PBP__ * 2))
 197  0003              ;# 197 "D:\Users\IIIT\Desktop\Hall0\Sevro_TM_button.c" 1
 197  0003              	MOV A,(2000-( 4 + __PBP__ * 2))/4
 197  0003              ;# 197 "D:\Users\IIIT\Desktop\Hall0\Sevro_TM_button.c" 1
 197  0003              	fcall __DELAYX3 + 3 -((2000-( 4 + __PBP__ * 2)) MOD 4) 
 197  0003              	ENDIF
 197  0003              ;# 197 "D:\Users\IIIT\Desktop\Hall0\Sevro_TM_button.c" 1
 197  0003              	IF (2000< ( 040bh + __PBP__ * 2)) AND (2000> ( 0403h + __PBP__ * 2))
 197  0003              ;# 197 "D:\Users\IIIT\Desktop\Hall0\Sevro_TM_button.c" 1
 197  0003              	MOV A,0 
 197  0003              ;# 197 "D:\Users\IIIT\Desktop\Hall0\Sevro_TM_button.c" 1
 197  0003              	fcall __DELAYX6 + ( 040ah + __PBP__ * 2) -2000
 197  0003              	ENDIF
 197  0003              ;# 197 "D:\Users\IIIT\Desktop\Hall0\Sevro_TM_button.c" 1
 197  0003              	IF (2000 >= ( 040bh + __PBP__ * 2)) AND ((((2000-( 9 + __PBP__ * 2))%0402h)/4+1)>256)
 197  0003              ;# 197 "D:\Users\IIIT\Desktop\Hall0\Sevro_TM_button.c" 1
 197  0003              	MOV A,(2000-( 9 + __PBP__ * 2))/0402h
 197  0003              ;# 197 "D:\Users\IIIT\Desktop\Hall0\Sevro_TM_button.c" 1
 197  0003              	MOV _builtin_holtek_delay_2,A
 197  0003              ;# 197 "D:\Users\IIIT\Desktop\Hall0\Sevro_TM_button.c" 1
 197  0003              	MOV A,0
 197  0003              ;# 197 "D:\Users\IIIT\Desktop\Hall0\Sevro_TM_button.c" 1
 197  0003              	fcall __DELAYY5 +5- (((2000-( 9 + __PBP__ * 2))%0402h)%6) 
 197  0003              	ENDIF
 197  0003              ;# 197 "D:\Users\IIIT\Desktop\Hall0\Sevro_TM_button.c" 1
 197  0003              	IF (2000 >= ( 040bh + __PBP__ * 2)) AND ((((2000-( 9 + __PBP__ * 2))%0402h)/4+1)<=256)
 197  0003              ;# 197 "D:\Users\IIIT\Desktop\Hall0\Sevro_TM_button.c" 1
 197  0003  0F01        	MOV A,(2000-( 9 + __PBP__ * 2))/0402h
 197  0004              ;# 197 "D:\Users\IIIT\Desktop\Hall0\Sevro_TM_button.c" 1
 197  0004  0080     E  	MOV _builtin_holtek_delay_2,A
 197  0005              ;# 197 "D:\Users\IIIT\Desktop\Hall0\Sevro_TM_button.c" 1
 197  0005  0FF1        	MOV A,((2000-( 9 + __PBP__ * 2))%0402h)/4+1
 197  0006              ;# 197 "D:\Users\IIIT\Desktop\Hall0\Sevro_TM_button.c" 1
 197  0006              	fcall __DELAYY3 +3-(((2000-( 9 + __PBP__ * 2))%0402h)%4) 
 197  000D              	ENDIF
 196  000D              #line 196 "D:\Users\IIIT\Desktop\Hall0\Sevro_TM_button.c"
 196  000D  1480     E  	inc ra
 196  000E              _L20:
 196  000E  0700     E  	mov a,ra
 196  000F  0200     R  	sub a,_delay_ms_2[0]
 196  0010  390A        	snz z
 196  0011  2800     R  	jmp _L21
 196  0012  0003        	ret
 196  0013              _delay_ms endp
 196  0013              #line 196 "D:\Users\IIIT\Desktop\Hall0\Sevro_TM_button.c"
 196  0013              #pragma debug scope 1 1
 196  0013              ___tm0al equ [98]
 196  0013              ___tm0ah equ [99]
 196  0013              ___pc equ [26]
 196  0013              ___mfi0 equ [52]
 196  0013              public _UARTTxData
 196  0013              #pragma debug scope 15 1
 201  0013              #line 201 "D:\Users\IIIT\Desktop\Hall0\Sevro_TM_button.c"
"File: Sevro_TM_button.c  Assembler  Version HGASM0202      Page 11

 201  0000              _UARTTxData .section 'code'
 201  0000              _UARTTxData proc
 201  0000  00              local _UARTTxData_2 db 1 dup(?)	; 0,1
 201  0000  0080     R  	mov _UARTTxData_2[0],a
 201  0001              #pragma debug variable 8 15 _UARTTxData_2+0 "data"
 202  0001              #line 202 "D:\Users\IIIT\Desktop\Hall0\Sevro_TM_button.c"
 202  0001  0F41        	mov a,65
 202  0002  00E2        	mov [98],a
 202  0003  0F03        	mov a,3
 202  0004  00E3        	mov [99],a
 203  0005              #line 203 "D:\Users\IIIT\Desktop\Hall0\Sevro_TM_button.c"
 203  0005  349A        	clr [26].1
 204  0006              #line 204 "D:\Users\IIIT\Desktop\Hall0\Sevro_TM_button.c"
 204  0006  31DE        	set [94].3
 205  0007              #line 205 "D:\Users\IIIT\Desktop\Hall0\Sevro_TM_button.c"
 205  0007  36B4        	clr [52].5
 205  0008              _L24:
 206  0008              #line 206 "D:\Users\IIIT\Desktop\Hall0\Sevro_TM_button.c"
 206  0008  3AB4        	snz [52].5
 206  0009  2800     R  	jmp _L24
 207  000A              #line 207 "D:\Users\IIIT\Desktop\Hall0\Sevro_TM_button.c"
 207  000A  36B4        	clr [52].5
 207  000B  1F00     E  	clr rb
 201  000C              #line 201 "D:\Users\IIIT\Desktop\Hall0\Sevro_TM_button.c"
 201  000C  0F01        	mov a,1
 201  000D  0080     E  	mov ra,a
 201  000E              _L28:
 209  000E              #line 209 "D:\Users\IIIT\Desktop\Hall0\Sevro_TM_button.c"
 209  000E  0700     E  	mov a,ra
 209  000F  0600     R  	and a,_UARTTxData_2[0]
 209  0010  0080     E  	mov rc,a
 209  0011  0F00        	mov a,0
 209  0012  0200     E  	sub a,rc
 209  0013  0080     E  	mov rd,a
 209  0014  0700     E  	mov a,rd
 209  0015  0580     E  	orm a,rc
 209  0016  1A80     E  	rlc rc
 209  0017  1F00     E  	clr rc
 209  0018  1A80     E  	rlc rc
 209  0019  0700     E  	mov a,rc
 209  001A  0380     E  	addm a,rc
 209  001B  349A        	clr [26].1
 209  001C  0700     E  	mov a,rc
 209  001D  059A        	orm a,[26]
 209  001E              _L26:
 210  001E              #line 210 "D:\Users\IIIT\Desktop\Hall0\Sevro_TM_button.c"
 210  001E  3AB4        	snz [52].5
 210  001F  2800     R  	jmp _L26
 211  0020              #line 211 "D:\Users\IIIT\Desktop\Hall0\Sevro_TM_button.c"
 211  0020  36B4        	clr [52].5
 212  0021              #line 212 "D:\Users\IIIT\Desktop\Hall0\Sevro_TM_button.c"
 212  0021  0700     E  	mov a,ra
 212  0022  0380     E  	addm a,ra
 212  0023  1480     E  	inc rb
 213  0024              #line 213 "D:\Users\IIIT\Desktop\Hall0\Sevro_TM_button.c"
 213  0024  0700     E  	mov a,rb
 213  0025  0A08        	sub a,8
 213  0026  390A        	snz z
 213  0027  2800     R  	jmp _L28
 214  0028              #line 214 "D:\Users\IIIT\Desktop\Hall0\Sevro_TM_button.c"
"File: Sevro_TM_button.c  Assembler  Version HGASM0202      Page 12

 214  0028  309A        	set [26].1
 214  0029              _L30:
 215  0029              #line 215 "D:\Users\IIIT\Desktop\Hall0\Sevro_TM_button.c"
 215  0029  3AB4        	snz [52].5
 215  002A  2800     R  	jmp _L30
 216  002B              #line 216 "D:\Users\IIIT\Desktop\Hall0\Sevro_TM_button.c"
 216  002B  35DE        	clr [94].3
 216  002C  0003        	ret
 216  002D              _UARTTxData endp
 216  002D              #line 216 "D:\Users\IIIT\Desktop\Hall0\Sevro_TM_button.c"
 216  002D              #pragma debug scope 1 1
 216  002D              public _TranAxis
 216  002D              #pragma debug scope 16 1
 220  002D              #line 220 "D:\Users\IIIT\Desktop\Hall0\Sevro_TM_button.c"
 220  0000              _TranAxis .section 'code'
 220  0000              _TranAxis proc
 224  0000              #line 224 "D:\Users\IIIT\Desktop\Hall0\Sevro_TM_button.c"
 224  0000  1480     R  	inc _Axcount[0]
 225  0001              #line 225 "D:\Users\IIIT\Desktop\Hall0\Sevro_TM_button.c"
 225  0001  0700     R  	mov a,_Head[0]
 225  0002  0080     E  	mov ra,a
 225  0003  0700     R  	mov a,_AxisXH[0]
 225  0004  0300     E  	add a,ra
 225  0005  0080     R  	mov _AXCRC[0],a
 226  0006              #line 226 "D:\Users\IIIT\Desktop\Hall0\Sevro_TM_button.c"
 226  0006  0700     E  	mov a,ra
 226  0007              	fcall _UARTTxData
 227  000E              #line 227 "D:\Users\IIIT\Desktop\Hall0\Sevro_TM_button.c"
 227  000E  0700     R  	mov a,_AxisXH[0]
 227  000F              	fcall _UARTTxData
 228  0016              #line 228 "D:\Users\IIIT\Desktop\Hall0\Sevro_TM_button.c"
 228  0016  0700     R  	mov a,_AxisXL[0]
 228  0017              	fcall _UARTTxData
 229  001E              #line 229 "D:\Users\IIIT\Desktop\Hall0\Sevro_TM_button.c"
 229  001E  0700     R  	mov a,_Axcount[0]
 229  001F              	fcall _UARTTxData
 231  0026              #line 231 "D:\Users\IIIT\Desktop\Hall0\Sevro_TM_button.c"
 231  0026  0700     R  	mov a,_AXCRC[0]
 231  0027              	fcall _UARTTxData
 231  002E  0003        	ret
 231  002F              _TranAxis endp
 231  002F              #line 231 "D:\Users\IIIT\Desktop\Hall0\Sevro_TM_button.c"
 231  002F              #pragma debug scope 1 1
 231  002F              public _TranHall
 231  002F              #pragma debug scope 17 1
 235  002F              #line 235 "D:\Users\IIIT\Desktop\Hall0\Sevro_TM_button.c"
 235  0000              _TranHall .section 'code'
 235  0000              _TranHall proc
 235  0000  0002[           local _TranHall_2 db 2 dup(?)	; 0,2
            00
            ]
 237  0002              #line 237 "D:\Users\IIIT\Desktop\Hall0\Sevro_TM_button.c"
 237  0000  0700     R  	mov a,_HallData[0]
 237  0001  0080     R  	mov _TranHall_2[1],a
 237  0002  0700     R  	mov a,_HallData[1]
 237  0003  0080     R  	mov _TranHall_2[0],a
 242  0004              #line 242 "D:\Users\IIIT\Desktop\Hall0\Sevro_TM_button.c"
 242  0004  1480     R  	inc _Hacount[0]
 243  0005              #line 243 "D:\Users\IIIT\Desktop\Hall0\Sevro_TM_button.c"
 243  0005  0700     R  	mov a,_HallHead[0]
"File: Sevro_TM_button.c  Assembler  Version HGASM0202      Page 13

 243  0006  0080     E  	mov ra,a
 243  0007  0700     R  	mov a,_TranHall_2[0]
 243  0008  0300     E  	add a,ra
 243  0009  0080     R  	mov _HallCRC[0],a
 244  000A              #line 244 "D:\Users\IIIT\Desktop\Hall0\Sevro_TM_button.c"
 244  000A  0700     E  	mov a,ra
 244  000B              	fcall _UARTTxData
 245  0012              #line 245 "D:\Users\IIIT\Desktop\Hall0\Sevro_TM_button.c"
 245  0012  0700     R  	mov a,_TranHall_2[0]
 245  0013              	fcall _UARTTxData
 246  001A              #line 246 "D:\Users\IIIT\Desktop\Hall0\Sevro_TM_button.c"
 246  001A  0700     R  	mov a,_TranHall_2[1]
 246  001B              	fcall _UARTTxData
 247  0022              #line 247 "D:\Users\IIIT\Desktop\Hall0\Sevro_TM_button.c"
 247  0022  0700     R  	mov a,_Hacount[0]
 247  0023              	fcall _UARTTxData
 248  002A              #line 248 "D:\Users\IIIT\Desktop\Hall0\Sevro_TM_button.c"
 248  002A  0700     R  	mov a,_HallCRC[0]
 248  002B              	fcall _UARTTxData
 248  0032  0003        	ret
 248  0033              _TranHall endp
 248  0033              #line 248 "D:\Users\IIIT\Desktop\Hall0\Sevro_TM_button.c"
 248  0033              #pragma debug scope 1 1
 248  0033              public _XArrayAvg
 248  0033              #pragma debug scope 18 1
 252  0033              #line 252 "D:\Users\IIIT\Desktop\Hall0\Sevro_TM_button.c"
 252  0000              _XArrayAvg .section 'code'
 252  0000              _XArrayAvg proc
 252  0000  1F00     E  	clr ra
 253  0001              #line 253 "D:\Users\IIIT\Desktop\Hall0\Sevro_TM_button.c"
 253  0001  1F00     E  	clr rb
 253  0002  1F00     E  	clr rc
 253  0003              _L34:
 255  0003              #line 255 "D:\Users\IIIT\Desktop\Hall0\Sevro_TM_button.c"
 255  0003  0700     E  	mov a,ra
 255  0004  0080     E  	mov rd,a
 255  0005  1F00     E  	clr re
 255  0006  340A        	clr c
 255  0007  1A80     E  	rlc rd
 255  0008  1A80     E  	rlc re
 255  0009  0F00     R  	mov a,low offset _XArr
 255  000A  0300     E  	add a,rd
 255  000B  0083        	mov mp,a
 255  000C  0F00     R  	mov a,high offset _XArr
 255  000D  1300     E  	adc a,re
 255  000E  0084        	mov sbp,a
 255  000F              	fcall _Crom2Prom
 255  0016  0080     E  	mov rd,a
 255  0017              	fcall _Crom2PromNext
 255  001E  0080     E  	mov re,a
 255  001F  0700     E  	mov a,rd
 255  0020  0380     E  	addm a,rb
 255  0021  0700     E  	mov a,re
 255  0022  1380     E  	adcm a,rc
 254  0023              #line 254 "D:\Users\IIIT\Desktop\Hall0\Sevro_TM_button.c"
 254  0023  1480     E  	inc ra
 254  0024  0F04        	mov a,4
 254  0025  0200     E  	sub a,ra
 254  0026  3C0A        	sz c
 254  0027  2800     R  	jmp _L34
"File: Sevro_TM_button.c  Assembler  Version HGASM0202      Page 14

 254  0028  0700     E  	mov a,ra
 254  0029  0080     R  	mov _i[0],a
 257  002A              #line 257 "D:\Users\IIIT\Desktop\Hall0\Sevro_TM_button.c"
 257  002A  1F00     E  	clr _builtin_holtek_udivmodhi4_2[6]
 257  002B  0700     E  	mov a,rb  
 257  002C  0080     E  	mov _builtin_holtek_udivmodhi4_2[0],a  
 257  002D  0700     E  	mov a,rc  
 257  002E  0080     E  	mov _builtin_holtek_udivmodhi4_2[1],a
 257  002F  0F05        	mov a,5  
 257  0030  0080     E  	mov _builtin_holtek_udivmodhi4_2[2],a  
 257  0031  1F00     E  	clr _builtin_holtek_udivmodhi4_2[3]
 257  0032              	fcall _builtin_holtek_udivmodhi4
 257  0039  0700     E  	mov a,_builtin_holtek_udivmodhi4_2[0]  
 257  003A  0080     R  	mov _XArrAvg[0],a  
 257  003B  0700     E  	mov a,_builtin_holtek_udivmodhi4_2[1]  
 257  003C  0080     R  	mov _XArrAvg[1],a
 257  003D  0003        	ret
 257  003E              _XArrayAvg endp
 257  003E              #line 257 "D:\Users\IIIT\Desktop\Hall0\Sevro_TM_button.c"
 257  003E              #pragma debug scope 1 1
 257  003E              public _XArrayPut
 257  003E              #pragma debug scope 19 1
 260  003E              #line 260 "D:\Users\IIIT\Desktop\Hall0\Sevro_TM_button.c"
 260  0000              _XArrayPut .section 'code'
 260  0000              _XArrayPut proc
 261  0000              #line 261 "D:\Users\IIIT\Desktop\Hall0\Sevro_TM_button.c"
 261  0000  0F05        	mov a,5
 261  0001  0080     R  	mov _i[0],a
 261  0002  0F05        	mov a,5
 261  0003  0080     E  	mov ra,a
 261  0004              _L37:
 262  0004              #line 262 "D:\Users\IIIT\Desktop\Hall0\Sevro_TM_button.c"
 262  0004  0700     E  	mov a,ra
 262  0005  0080     E  	mov rb,a
 262  0006  1F00     E  	clr rc
 262  0007  340A        	clr c
 262  0008  1A00     E  	rlca rb
 262  0009  0080     E  	mov rd,a
 262  000A  1A00     E  	rlca rc
 262  000B  0080     E  	mov re,a
 262  000C  0F00     R  	mov a,low (offset _XArr-2)
 262  000D  0300     E  	add a,rd
 262  000E  0083        	mov mp,a
 262  000F  0F00     R  	mov a,high (offset _XArr-2)
 262  0010  1300     E  	adc a,re
 262  0011  0084        	mov sbp,a
 262  0012              	fcall _Crom2Prom
 262  0019  0080     E  	mov rd,a
 262  001A              	fcall _Crom2PromNext
 262  0021  0080     E  	mov re,a
 262  0022  340A        	clr c
 262  0023  1A80     E  	rlc rb
 262  0024  1A80     E  	rlc rc
 262  0025  0F00     R  	mov a,low offset _XArr
 262  0026  0300     E  	add a,rb
 262  0027  0083        	mov mp,a
 262  0028  0F00     R  	mov a,high offset _XArr
 262  0029  1300     E  	adc a,rc
 262  002A  0084        	mov sbp,a
 262  002B  0700     E  	mov a,rd
"File: Sevro_TM_button.c  Assembler  Version HGASM0202      Page 15

 262  002C  0082        	mov ir,a
 262  002D  1483        	inc mp
 262  002E  0700     E  	mov a,re
 262  002F  0082        	mov ir,a
 261  0030              #line 261 "D:\Users\IIIT\Desktop\Hall0\Sevro_TM_button.c"
 261  0030  1780     E  	sdz ra
 261  0031  2800     R  	jmp _L37
 261  0032  1F00     R  	clr _i[0]
 264  0033              #line 264 "D:\Users\IIIT\Desktop\Hall0\Sevro_TM_button.c"
 264  0033  0700     R  	mov a,_AxisX[0]
 264  0034  0080     R  	mov _XArr[0],a
 264  0035  0700     R  	mov a,_AxisX[1]
 264  0036  0080     R  	mov _XArr[1],a
 264  0037  0003        	ret
 264  0038              _XArrayPut endp
 264  0038              #line 264 "D:\Users\IIIT\Desktop\Hall0\Sevro_TM_button.c"
 264  0038              #pragma debug scope 1 1
 264  0038              public _XArraySort
 264  0038              #pragma debug scope 20 1
 267  0038              #line 267 "D:\Users\IIIT\Desktop\Hall0\Sevro_TM_button.c"
 267  0000              _XArraySort .section 'code'
 267  0000              _XArraySort proc
 267  0000  0005[           local _XArraySort_2 db 5 dup(?)	; 0,5
            00
            ]
 269  0005              #line 269 "D:\Users\IIIT\Desktop\Hall0\Sevro_TM_button.c"
 269  0000  1F00     R  	clr _i[0]
 269  0001  1F00     E  	clr ra
 269  0002              _L40:
 270  0002              #line 270 "D:\Users\IIIT\Desktop\Hall0\Sevro_TM_button.c"
 270  0002  0700     E  	mov a,ra
 270  0003  0080     E  	mov rb,a
 270  0004  1F00     E  	clr rc
 270  0005  340A        	clr c
 270  0006  1A80     E  	rlc rb
 270  0007  1A80     E  	rlc rc
 270  0008  0F00     R  	mov a,low offset _XArr
 270  0009  0300     E  	add a,rb
 270  000A  0083        	mov mp,a
 270  000B  0F00     R  	mov a,high offset _XArr
 270  000C  1300     E  	adc a,rc
 270  000D  0084        	mov sbp,a
 270  000E              	fcall _Crom2Prom
 270  0015  0080     E  	mov rd,a
 270  0016              	fcall _Crom2PromNext
 270  001D  0080     E  	mov re,a
 270  001E  0F00     R  	mov a,low offset _XArrSort
 270  001F  0300     E  	add a,rb
 270  0020  0083        	mov mp,a
 270  0021  0F00     R  	mov a,high offset _XArrSort
 270  0022  1300     E  	adc a,rc
 270  0023  0084        	mov sbp,a
 270  0024  0700     E  	mov a,rd
 270  0025  0082        	mov ir,a
 270  0026  1483        	inc mp
 270  0027  0700     E  	mov a,re
 270  0028  0082        	mov ir,a
 269  0029              #line 269 "D:\Users\IIIT\Desktop\Hall0\Sevro_TM_button.c"
 269  0029  1480     E  	inc ra
 269  002A  0F04        	mov a,4
"File: Sevro_TM_button.c  Assembler  Version HGASM0202      Page 16

 269  002B  0200     E  	sub a,ra
 269  002C  3C0A        	sz c
 269  002D  2800     R  	jmp _L40
 272  002E              #line 272 "D:\Users\IIIT\Desktop\Hall0\Sevro_TM_button.c"
 272  002E  1F00     R  	clr _i[0]
 272  002F  0700     R  	mov a,_tempx[0]
 272  0030  0080     E  	mov rh,a
 272  0031  0700     R  	mov a,_tempx[1]
 272  0032  0080     E  	mov ra,a
 272  0033  1F00     R  	clr _XArraySort_2[0]
 272  0034              _L42:
 272  0034  0F04        	mov a,4
 272  0035  0200     R  	sub a,_XArraySort_2[0]
 272  0036  380A        	snz c
 272  0037  2800     R  	jmp _L45
 272  0038  1F00     E  	clr rb
 272  0039  1F00     E  	clr rc
 272  003A              _L46:
 274  003A              #line 274 "D:\Users\IIIT\Desktop\Hall0\Sevro_TM_button.c"
 274  003A  1480     E  	inc rb
 274  003B  3D0A        	sz z
 274  003C  1480     E  	inc rc
 274  003D  340A        	clr c
 274  003E  1A00     E  	rlca rb
 274  003F  0080     E  	mov rd,a
 274  0040  1A00     E  	rlca rc
 274  0041  0080     E  	mov re,a
 274  0042  0F00     R  	mov a,low offset _XArrSort
 274  0043  0300     E  	add a,rd
 274  0044  0080     E  	mov rf,a
 274  0045  0F00     R  	mov a,high offset _XArrSort
 274  0046  1300     E  	adc a,re
 274  0047  0080     E  	mov rg,a
 274  0048  0700     E  	mov a,rf
 274  0049  0083        	mov mp,a
 274  004A  0700     E  	mov a,rg
 274  004B  0084        	mov sbp,a
 274  004C              	fcall _Crom2Prom
 274  0053  0080     R  	mov _XArraySort_2[1],a
 274  0054              	fcall _Crom2PromNext
 274  005B  0080     R  	mov _XArraySort_2[2],a
 274  005C  0FFE        	mov a,254
 274  005D  0300     E  	add a,rf
 274  005E  0080     R  	mov _XArraySort_2[3],a
 274  005F  0FFF        	mov a,255
 274  0060  1300     E  	adc a,rg
 274  0061  0080     R  	mov _XArraySort_2[4],a
 274  0062  0700     R  	mov a,_XArraySort_2[3]
 274  0063  0083        	mov mp,a
 274  0064  0700     R  	mov a,_XArraySort_2[4]
 274  0065  0084        	mov sbp,a
 274  0066              	fcall _Crom2Prom
 274  006D  0080     E  	mov rd,a
 274  006E              	fcall _Crom2PromNext
 274  0075  0080     E  	mov re,a
 274  0076  0700     R  	mov a,_XArraySort_2[1]
 274  0077  0200     E  	sub a,rd
 274  0078  0700     R  	mov a,_XArraySort_2[2]
 274  0079  1200     E  	sbc a,re
 274  007A  3C0A        	sz c
"File: Sevro_TM_button.c  Assembler  Version HGASM0202      Page 17

 274  007B  2800     R  	jmp _L43
 276  007C              #line 276 "D:\Users\IIIT\Desktop\Hall0\Sevro_TM_button.c"
 276  007C  0700     R  	mov a,_XArraySort_2[3]
 276  007D  0083        	mov mp,a
 276  007E  0700     R  	mov a,_XArraySort_2[4]
 276  007F  0084        	mov sbp,a
 276  0080  0700     R  	mov a,_XArraySort_2[1]
 276  0081  0082        	mov ir,a
 276  0082  1483        	inc mp
 276  0083  0700     R  	mov a,_XArraySort_2[2]
 276  0084  0082        	mov ir,a
 277  0085              #line 277 "D:\Users\IIIT\Desktop\Hall0\Sevro_TM_button.c"
 277  0085  0700     E  	mov a,rf
 277  0086  0083        	mov mp,a
 277  0087  0700     E  	mov a,rg
 277  0088  0084        	mov sbp,a
 277  0089  0700     E  	mov a,rd
 277  008A  0082        	mov ir,a
 277  008B  1483        	inc mp
 277  008C  0700     E  	mov a,re
 277  008D  0082        	mov ir,a
 277  008E  0700     E  	mov a,rd
 277  008F  0080     E  	mov rh,a
 277  0090  0700     E  	mov a,re
 277  0091  0080     E  	mov ra,a
 277  0092              _L43:
 273  0092              #line 273 "D:\Users\IIIT\Desktop\Hall0\Sevro_TM_button.c"
 273  0092  0700     E  	mov a,rb
 273  0093  0C05        	xor a,5
 273  0094  0500     E  	or a,rc
 273  0095  390A        	snz z
 273  0096  2800     R  	jmp _L46
 273  0097  1480     R  	inc _XArraySort_2[0]
 273  0098  2800     R  	jmp _L42
 273  0099              _L45:
 273  0099  0700     R  	mov a,_XArraySort_2[0]
 273  009A  0080     R  	mov _i[0],a
 273  009B  0700     E  	mov a,rh
 273  009C  0080     R  	mov _tempx[0],a
 273  009D  0700     E  	mov a,ra
 273  009E  0080     R  	mov _tempx[1],a
 273  009F  0003        	ret
 273  00A0              _XArraySort endp
 273  00A0              #line 273 "D:\Users\IIIT\Desktop\Hall0\Sevro_TM_button.c"
 273  00A0              #pragma debug scope 1 1
 273  00A0              public _AxisCal
 273  00A0              #pragma debug scope 21 1
 283  00A0              #line 283 "D:\Users\IIIT\Desktop\Hall0\Sevro_TM_button.c"
 283  0000              _AxisCal .section 'code'
 283  0000              _AxisCal proc
 284  0000              #line 284 "D:\Users\IIIT\Desktop\Hall0\Sevro_TM_button.c"
 284  0000  0700     R  	mov a,_AxisXH[0]
 284  0001  0080     E  	mov rc,a
 284  0002  1F00     E  	clr rb
 285  0003              #line 285 "D:\Users\IIIT\Desktop\Hall0\Sevro_TM_button.c"
 285  0003  0700     R  	mov a,_AxisXL[0]
 285  0004  0300     E  	add a,rb
 285  0005  0080     R  	mov _AxisX[0],a
 285  0006  1F05        	clr acc
 285  0007  1300     E  	adc a,rc
"File: Sevro_TM_button.c  Assembler  Version HGASM0202      Page 18

 285  0008  0080     R  	mov _AxisX[1],a
 285  0009  0003        	ret
 285  000A              _AxisCal endp
 285  000A              #line 285 "D:\Users\IIIT\Desktop\Hall0\Sevro_TM_button.c"
 285  000A              #pragma debug scope 1 1
 285  000A              ___pcc equ [27]
 285  000A              ___wdtc equ [62]
 285  000A              public _main
 285  000A              #pragma debug scope 22 1
  64  000A              #line 64 "D:\Users\IIIT\Desktop\Hall0\Sevro_TM_button.c"
  64  000A              IFDEF WITH_DEFAULT_STARTUP
  64  000A              extern _main_initial0:near
  64  000A              extern _main_startup:near
  64  000A              ENDIF
  64  000A              
  64  000A              ROMBANK 0 @start
  64  0000              @start .section com_l 'code'
  64  0000              _main_startup1:
  64  0000              @start .section com_e 'code'
  64  0000  0F00     R  	mov a,bank _main
  64  0001  008B        	mov bp,a
  64  0002  2800     R  	jmp _main
  64  0003              
  64  0000              _main .section 'code'
  64  0000              _main proc
  65  0000              #line 65 "D:\Users\IIIT\Desktop\Hall0\Sevro_TM_button.c"
  65  0000  309A        	set [26].1
  65  0001  349B        	clr [27].1
  66  0002              #line 66 "D:\Users\IIIT\Desktop\Hall0\Sevro_TM_button.c"
  66  0002  0FAB        	mov a,171
  66  0003  00BE        	mov [62],a
  67  0004              #line 67 "D:\Users\IIIT\Desktop\Hall0\Sevro_TM_button.c"
  67  0004  0F03        	mov a,3
  67  0005  0080     R  	mov _Head[0],a
  68  0006              #line 68 "D:\Users\IIIT\Desktop\Hall0\Sevro_TM_button.c"
  68  0006  0F02        	mov a,2
  68  0007  0080     R  	mov _HallHead[0],a
  70  0008              #line 70 "D:\Users\IIIT\Desktop\Hall0\Sevro_TM_button.c"
  70  0008  0FAB        	mov a,171
  70  0009  00BE        	mov [62],a
  71  000A              #line 71 "D:\Users\IIIT\Desktop\Hall0\Sevro_TM_button.c"
  71  000A  0F01        	mov a,1
  71  000B  0080     R  	mov _AD10ms[0],a
  71  000C  1F00     R  	clr _Whell[0]
  71  000D  0F32        	mov a,50
  71  000E  0080     R  	mov _Whell100ms[0],a
  72  000F              #line 72 "D:\Users\IIIT\Desktop\Hall0\Sevro_TM_button.c"
  72  000F              	fcall _TM_Set
  73  0016              #line 73 "D:\Users\IIIT\Desktop\Hall0\Sevro_TM_button.c"
  73  0016              	fcall _Interrupt_Set
  74  001D              #line 74 "D:\Users\IIIT\Desktop\Hall0\Sevro_TM_button.c"
  74  001D              	fcall _Moto_Set
  75  0024              #line 75 "D:\Users\IIIT\Desktop\Hall0\Sevro_TM_button.c"
  75  0024              	fcall _AD_Set
  76  002B              #line 76 "D:\Users\IIIT\Desktop\Hall0\Sevro_TM_button.c"
  76  002B  3030        	set [48].0
  77  002C              #line 77 "D:\Users\IIIT\Desktop\Hall0\Sevro_TM_button.c"
  77  002C  0F6B        	mov a,107
  77  002D              	fcall _Moto_C
  78  0034              #line 78 "D:\Users\IIIT\Desktop\Hall0\Sevro_TM_button.c"
"File: Sevro_TM_button.c  Assembler  Version HGASM0202      Page 19

  78  0034  0F01        	mov a,1
  78  0035  0080     R  	mov _auto1[0],a
  78  0036  1F00     R  	clr _auto1[1]
  78  0037              _L49:
  81  0037              #line 81 "D:\Users\IIIT\Desktop\Hall0\Sevro_TM_button.c"
  81  0037              	fcall _AxisCal
  82  003E              #line 82 "D:\Users\IIIT\Desktop\Hall0\Sevro_TM_button.c"
  82  003E              	fcall _TranAxis
  83  0045              #line 83 "D:\Users\IIIT\Desktop\Hall0\Sevro_TM_button.c"
  83  0045              	fcall _TranHall
  83  004C  2800     R  	jmp _L49
  83  004D  2800     R  	jmp $
  83  004E              _main endp
  83  004E              
  83  004E              @dummy endp
  83  004E              
  83  004E              #line 83 "D:\Users\IIIT\Desktop\Hall0\Sevro_TM_button.c"
  83  004E              #pragma debug scope 1 1
  46  004E              #line 46 "D:\Users\IIIT\Desktop\Hall0\Sevro_TM_button.c"
  46  004E              public _tempx
  46  0000              @HCCINIT0_tempx .section 'data'
  46  0000  0002[       _tempx	db 2 dup(0)
            00
            ]
  46  0002              #pragma debug variable 10 1 _tempx "tempx"
  46  0002              
  46  0000              @HCCINIT .section 'data'
  46  0000              #line 46 "D:\Users\IIIT\Desktop\Hall0\Sevro_TM_button.c"
  46  0000              public _XArrSort
  46  0000              @HCCINIT0_XArrSort .section 'data'
  46  0000  000A[       _XArrSort	db 10 dup(0)
            00
            ]
  46  000A              #pragma debug array 42 12 5 1
  46  000A              #pragma debug array 42 12 5 1
  46  000A              #pragma debug variable 42 1 _XArrSort "XArrSort"
  46  000A              
  46  0000              @HCCINIT .section 'data'
  45  0000              #line 45 "D:\Users\IIIT\Desktop\Hall0\Sevro_TM_button.c"
  45  0000              public _auto1
  45  0000              @HCCINIT0_auto1 .section 'data'
  45  0000  0002[       _auto1	db 2 dup(0)
            00
            ]
  45  0002              #pragma debug variable 9 1 _auto1 "auto1"
  45  0002              
  45  0000              @HCCINIT .section 'data'
  45  0000              #line 45 "D:\Users\IIIT\Desktop\Hall0\Sevro_TM_button.c"
  45  0000              public _Index
  45  0000              @HCCINIT0_Index .section 'data'
  45  0000  0002[       _Index	db 2 dup(0)
            00
            ]
  45  0002              #pragma debug variable 9 1 _Index "Index"
  45  0002              
  45  0000              @HCCINIT .section 'data'
  45  0000              #line 45 "D:\Users\IIIT\Desktop\Hall0\Sevro_TM_button.c"
  45  0000              public _temp
  45  0000              @HCCINIT0_temp .section 'data'
  45  0000  0002[       _temp	db 2 dup(0)
"File: Sevro_TM_button.c  Assembler  Version HGASM0202      Page 20

            00
            ]
  45  0002              #pragma debug variable 9 1 _temp "temp"
  45  0002              
  45  0000              @HCCINIT .section 'data'
  44  0000              #line 44 "D:\Users\IIIT\Desktop\Hall0\Sevro_TM_button.c"
  44  0000              public _i
  44  0000              @HCCINIT0_i .section 'data'
  44  0000              _i	db 0
  44  0001              #pragma debug variable 8 1 _i "i"
  44  0001              
  44  0000              @HCCINIT .section 'data'
  44  0000              #line 44 "D:\Users\IIIT\Desktop\Hall0\Sevro_TM_button.c"
  44  0000              public _Whell100ms
  44  0000              @HCCINIT0_Whell100ms .section 'data'
  44  0000              _Whell100ms	db 0
  44  0001              #pragma debug variable 8 1 _Whell100ms "Whell100ms"
  44  0001              
  44  0000              @HCCINIT .section 'data'
  44  0000              #line 44 "D:\Users\IIIT\Desktop\Hall0\Sevro_TM_button.c"
  44  0000              public _Whell
  44  0000              @HCCINIT0_Whell .section 'data'
  44  0000              _Whell	db 0
  44  0001              #pragma debug variable 8 1 _Whell "Whell"
  44  0001              
  44  0000              @HCCINIT .section 'data'
  44  0000              #line 44 "D:\Users\IIIT\Desktop\Hall0\Sevro_TM_button.c"
  44  0000              public _Hall200ms
  44  0000              @HCCINIT0_Hall200ms .section 'data'
  44  0000              _Hall200ms	db 0
  44  0001              #pragma debug variable 8 1 _Hall200ms "Hall200ms"
  44  0001              
  44  0000              @HCCINIT .section 'data'
  44  0000              #line 44 "D:\Users\IIIT\Desktop\Hall0\Sevro_TM_button.c"
  44  0000              public _AD10ms
  44  0000              @HCCINIT0_AD10ms .section 'data'
  44  0000              _AD10ms	db 0
  44  0001              #pragma debug variable 8 1 _AD10ms "AD10ms"
  44  0001              
  44  0000              @HCCINIT .section 'data'
  44  0000              #line 44 "D:\Users\IIIT\Desktop\Hall0\Sevro_TM_button.c"
  44  0000              public _R1sec
  44  0000              @HCCINIT0_R1sec .section 'data'
  44  0000              _R1sec	db 0
  44  0001              #pragma debug variable 8 1 _R1sec "R1sec"
  44  0001              
  44  0000              @HCCINIT .section 'data'
  44  0000              #line 44 "D:\Users\IIIT\Desktop\Hall0\Sevro_TM_button.c"
  44  0000              public _SEC
  44  0000              @HCCINIT0_SEC .section 'data'
  44  0000              _SEC	db 0
  44  0001              #pragma debug variable 8 1 _SEC "SEC"
  44  0001              
  44  0000              @HCCINIT .section 'data'
  44  0000              public _XArrAvg
  44  0000              @HCCINIT	.section 'data'
  30  0000              #line 30 "D:\Users\IIIT\Desktop\Hall0\Sevro_TM_button.c"
  30  0000              @HCCINIT_XArrAvg .section 'data'
  30  0000              _XArrAvg label byte
  30  0000              #pragma debug variable 10 1 _XArrAvg "XArrAvg"
"File: Sevro_TM_button.c  Assembler  Version HGASM0202      Page 21

  30  0000              	db 0
  30  0000              @ROMDATA_BASE .section inpage 'code'
  30  0000              	db 0
  30  0001              @HCCINIT_XArrAvg .section 'data'
  30  0001              	db 0
  30  0001              @ROMDATA_BASE .section inpage 'code'
  30  0001              	db 0
  30  0002              @HCCINIT_XArrAvg .section 'data'
  30  0002              #line 30 "D:\Users\IIIT\Desktop\Hall0\Sevro_TM_button.c"
  30  0002              public _ADx
  30  0000              @HCCINIT0_ADx .section 'data'
  30  0000  0002[       _ADx	db 2 dup(0)
            00
            ]
  30  0002              #pragma debug variable 10 1 _ADx "ADx"
  30  0002              
  30  0000              @HCCINIT .section 'data'
  30  0000              #line 30 "D:\Users\IIIT\Desktop\Hall0\Sevro_TM_button.c"
  30  0000              public _XArr
  30  0000              @HCCINIT0_XArr .section 'data'
  30  0000  000A[       _XArr	db 10 dup(0)
            00
            ]
  30  000A              #pragma debug variable 42 1 _XArr "XArr"
  30  000A              
  30  0000              @HCCINIT .section 'data'
  30  0000              public _HallCount
  29  0000              #line 29 "D:\Users\IIIT\Desktop\Hall0\Sevro_TM_button.c"
  29  0000              @HCCINIT_HallCount .section 'data'
  29  0000              _HallCount label byte
  29  0000              #pragma debug variable 8 1 _HallCount "HallCount"
  29  0000              	db 0
  29  0001              @ROMDATA_BASE .section inpage 'code'
  29  0001              	db 0
  29  0001              @HCCINIT_HallCount .section 'data'
  29  0001              public _HallData
  28  0001              #line 28 "D:\Users\IIIT\Desktop\Hall0\Sevro_TM_button.c"
  28  0000              @HCCINIT_HallData .section 'data'
  28  0000              _HallData label byte
  28  0000              #pragma debug variable 10 1 _HallData "HallData"
  28  0000              	db 0
  28  0002              @ROMDATA_BASE .section inpage 'code'
  28  0002              	db 0
  28  0001              @HCCINIT_HallData .section 'data'
  28  0001              	db 0
  28  0002              @ROMDATA_BASE .section inpage 'code'
  28  0002              	db 0
  28  0002              @HCCINIT_HallData .section 'data'
  27  0002              #line 27 "D:\Users\IIIT\Desktop\Hall0\Sevro_TM_button.c"
  27  0002              public _HallSUM
  27  0000              @HCCINIT0_HallSUM .section 'data'
  27  0000              _HallSUM	db 0
  27  0001              #pragma debug variable 8 1 _HallSUM "HallSUM"
  27  0001              
  27  0000              @HCCINIT .section 'data'
  27  0000              #line 27 "D:\Users\IIIT\Desktop\Hall0\Sevro_TM_button.c"
  27  0000              public _HallCRC
  27  0000              @HCCINIT0_HallCRC .section 'data'
  27  0000              _HallCRC	db 0
  27  0001              #pragma debug variable 8 1 _HallCRC "HallCRC"
"File: Sevro_TM_button.c  Assembler  Version HGASM0202      Page 22

  27  0001              
  27  0000              @HCCINIT .section 'data'
  26  0000              #line 26 "D:\Users\IIIT\Desktop\Hall0\Sevro_TM_button.c"
  26  0000              public _AXSUM
  26  0000              @HCCINIT0_AXSUM .section 'data'
  26  0000              _AXSUM	db 0
  26  0001              #pragma debug variable 8 1 _AXSUM "AXSUM"
  26  0001              
  26  0000              @HCCINIT .section 'data'
  26  0000              #line 26 "D:\Users\IIIT\Desktop\Hall0\Sevro_TM_button.c"
  26  0000              public _AXCRC
  26  0000              @HCCINIT0_AXCRC .section 'data'
  26  0000              _AXCRC	db 0
  26  0001              #pragma debug variable 8 1 _AXCRC "AXCRC"
  26  0001              
  26  0000              @HCCINIT .section 'data'
  26  0000              public _Hacount
  24  0000              #line 24 "D:\Users\IIIT\Desktop\Hall0\Sevro_TM_button.c"
  24  0000              @HCCINIT_Hacount .section 'data'
  24  0000              _Hacount label byte
  24  0000              #pragma debug variable 8 1 _Hacount "Hacount"
  24  0000              	db 0
  24  0003              @ROMDATA_BASE .section inpage 'code'
  24  0003              	db 0
  24  0001              @HCCINIT_Hacount .section 'data'
  24  0001              public _Axcount
  23  0001              #line 23 "D:\Users\IIIT\Desktop\Hall0\Sevro_TM_button.c"
  23  0000              @HCCINIT_Axcount .section 'data'
  23  0000              _Axcount label byte
  23  0000              #pragma debug variable 8 1 _Axcount "Axcount"
  23  0000              	db 0
  23  0003              @ROMDATA_BASE .section inpage 'code'
  23  0003              	db 0
  23  0001              @HCCINIT_Axcount .section 'data'
  22  0001              #line 22 "D:\Users\IIIT\Desktop\Hall0\Sevro_TM_button.c"
  22  0001              public _HallHead
  22  0000              @HCCINIT0_HallHead .section 'data'
  22  0000              _HallHead	db 0
  22  0001              #pragma debug variable 8 1 _HallHead "HallHead"
  22  0001              
  22  0000              @HCCINIT .section 'data'
  21  0000              #line 21 "D:\Users\IIIT\Desktop\Hall0\Sevro_TM_button.c"
  21  0000              public _Head
  21  0000              @HCCINIT0_Head .section 'data'
  21  0000              _Head	db 0
  21  0001              #pragma debug variable 8 1 _Head "Head"
  21  0001              
  21  0000              @HCCINIT .section 'data'
  20  0000              #line 20 "D:\Users\IIIT\Desktop\Hall0\Sevro_TM_button.c"
  20  0000              public _AxisX
  20  0000              @HCCINIT0_AxisX .section 'data'
  20  0000  0002[       _AxisX	db 2 dup(0)
            00
            ]
  20  0002              #pragma debug variable 10 1 _AxisX "AxisX"
  20  0002              
  20  0000              @HCCINIT .section 'data'
  19  0000              #line 19 "D:\Users\IIIT\Desktop\Hall0\Sevro_TM_button.c"
  19  0000              public _AxisXL
  19  0000              @HCCINIT0_AxisXL .section 'data'
"File: Sevro_TM_button.c  Assembler  Version HGASM0202      Page 23

  19  0000              _AxisXL	db 0
  19  0001              #pragma debug variable 8 1 _AxisXL "AxisXL"
  19  0001              
  19  0000              @HCCINIT .section 'data'
  18  0000              #line 18 "D:\Users\IIIT\Desktop\Hall0\Sevro_TM_button.c"
  18  0000              public _AxisXH
  18  0000              @HCCINIT0_AxisXH .section 'data'
  18  0000              _AxisXH	db 0
  18  0001              #pragma debug variable 8 1 _AxisXH "AxisXH"
  18  0001              
  18  0000              @HCCINIT .section 'data'
  18  0000              #pragma debug struct_end
  18  0000              #pragma debug struct_end
  18  0000              #pragma debug union_end
  18  0000              #pragma debug union_end
  18  0000              #pragma debug variable 44 1 ___papu "__papu" 1
  18  0000              #pragma debug struct_end
  18  0000              #pragma debug struct_end
  18  0000              #pragma debug union_end
  18  0000              #pragma debug union_end
  18  0000              #pragma debug variable 46 1 ___pac "__pac" 1
  18  0000              #pragma debug struct_end
  18  0000              #pragma debug struct_end
  18  0000              #pragma debug union_end
  18  0000              #pragma debug union_end
  18  0000              #pragma debug variable 48 1 ___pb "__pb" 1
  18  0000              #pragma debug struct_end
  18  0000              #pragma debug struct_end
  18  0000              #pragma debug union_end
  18  0000              #pragma debug union_end
  18  0000              #pragma debug variable 50 1 ___pc "__pc" 1
  18  0000              #pragma debug struct_end
  18  0000              #pragma debug struct_end
  18  0000              #pragma debug union_end
  18  0000              #pragma debug union_end
  18  0000              #pragma debug variable 52 1 ___pcc "__pcc" 1
  18  0000              #pragma debug struct_end
  18  0000              #pragma debug struct_end
  18  0000              #pragma debug union_end
  18  0000              #pragma debug union_end
  18  0000              #pragma debug variable 54 1 ___pepu "__pepu" 1
  18  0000              #pragma debug struct_end
  18  0000              #pragma debug struct_end
  18  0000              #pragma debug union_end
  18  0000              #pragma debug union_end
  18  0000              #pragma debug variable 56 1 ___pec "__pec" 1
  18  0000              #pragma debug struct_end
  18  0000              #pragma debug struct_end
  18  0000              #pragma debug union_end
  18  0000              #pragma debug union_end
  18  0000              #pragma debug variable 58 1 ___intc0 "__intc0" 1
  18  0000              #pragma debug struct_end
  18  0000              #pragma debug struct_end
  18  0000              #pragma debug union_end
  18  0000              #pragma debug union_end
  18  0000              #pragma debug variable 60 1 ___intc3 "__intc3" 1
  18  0000              #pragma debug struct_end
  18  0000              #pragma debug struct_end
  18  0000              #pragma debug union_end
  18  0000              #pragma debug union_end
"File: Sevro_TM_button.c  Assembler  Version HGASM0202      Page 24

  18  0000              #pragma debug variable 62 1 ___mfi0 "__mfi0" 1
  18  0000              #pragma debug struct_end
  18  0000              #pragma debug struct_end
  18  0000              #pragma debug union_end
  18  0000              #pragma debug union_end
  18  0000              #pragma debug variable 64 1 ___mfi4 "__mfi4" 1
  18  0000              #pragma debug struct_end
  18  0000              #pragma debug struct_end
  18  0000              #pragma debug union_end
  18  0000              #pragma debug union_end
  18  0000              #pragma debug variable 66 1 ___integ "__integ" 1
  18  0000              #pragma debug struct_end
  18  0000              #pragma debug struct_end
  18  0000              #pragma debug union_end
  18  0000              #pragma debug union_end
  18  0000              #pragma debug variable 68 1 ___wdtc "__wdtc" 1
  18  0000              #pragma debug struct_end
  18  0000              #pragma debug struct_end
  18  0000              #pragma debug union_end
  18  0000              #pragma debug union_end
  18  0000              #pragma debug variable 70 1 ___tm2c0 "__tm2c0" 1
  18  0000              #pragma debug struct_end
  18  0000              #pragma debug struct_end
  18  0000              #pragma debug union_end
  18  0000              #pragma debug union_end
  18  0000              #pragma debug variable 72 1 ___tm2c1 "__tm2c1" 1
  18  0000              #pragma debug variable 8 1 ___tm2al "__tm2al" 1
  18  0000              #pragma debug variable 8 1 ___tm2ah "__tm2ah" 1
  18  0000              #pragma debug variable 8 1 ___tm2rp "__tm2rp" 1
  18  0000              #pragma debug struct_end
  18  0000              #pragma debug struct_end
  18  0000              #pragma debug union_end
  18  0000              #pragma debug union_end
  18  0000              #pragma debug variable 74 1 ___tm0c0 "__tm0c0" 1
  18  0000              #pragma debug struct_end
  18  0000              #pragma debug struct_end
  18  0000              #pragma debug union_end
  18  0000              #pragma debug union_end
  18  0000              #pragma debug variable 76 1 ___tm0c1 "__tm0c1" 1
  18  0000              #pragma debug variable 8 1 ___tm0al "__tm0al" 1
  18  0000              #pragma debug variable 8 1 ___tm0ah "__tm0ah" 1
  18  0000              #pragma debug struct_end
  18  0000              #pragma debug struct_end
  18  0000              #pragma debug union_end
  18  0000              #pragma debug union_end
  18  0000              #pragma debug variable 78 1 ___adcr0 "__adcr0" 1
  18  0000              #pragma debug struct_end
  18  0000              #pragma debug struct_end
  18  0000              #pragma debug union_end
  18  0000              #pragma debug union_end
  18  0000              #pragma debug variable 80 1 ___adcr1 "__adcr1" 1
  18  0000              #pragma debug variable 8 1 ___adrl "__adrl" 1
  18  0000              #pragma debug variable 8 1 ___adrh "__adrh" 1
  18  0000              #pragma debug struct_end
  18  0000              #pragma debug struct_end
  18  0000              #pragma debug union_end
  18  0000              #pragma debug union_end
  18  0000              #pragma debug variable 82 1 ___ifs0 "__ifs0" 1
  18  0000              #pragma debug struct_end
  18  0000              #pragma debug struct_end
"File: Sevro_TM_button.c  Assembler  Version HGASM0202      Page 25

  18  0000              #pragma debug union_end
  18  0000              #pragma debug union_end
  18  0000              #pragma debug variable 84 1 ___ifs1 "__ifs1" 1
  18  0000              #pragma debug struct_end
  18  0000              #pragma debug struct_end
  18  0000              #pragma debug union_end
  18  0000              #pragma debug union_end
  18  0000              #pragma debug variable 86 1 ___tm4c0 "__tm4c0" 1
  18  0000              #pragma debug struct_end
  18  0000              #pragma debug struct_end
  18  0000              #pragma debug union_end
  18  0000              #pragma debug union_end
  18  0000              #pragma debug variable 88 1 ___tm4c1 "__tm4c1" 1
  18  0000              #pragma debug variable 8 1 ___tm4al "__tm4al" 1
  18  0000              #pragma debug variable 8 1 ___tm4ah "__tm4ah" 1
  18  0000              #pragma debug struct_end
  18  0000              #pragma debug struct_end
  18  0000              #pragma debug union_end
  18  0000              #pragma debug union_end
  18  0000              #pragma debug variable 90 1 ___pas0 "__pas0" 1
  18  0000              #pragma debug struct_end
  18  0000              #pragma debug struct_end
  18  0000              #pragma debug union_end
  18  0000              #pragma debug union_end
  18  0000              #pragma debug variable 92 1 ___pas3 "__pas3" 1
  18  0000              #pragma debug struct_end
  18  0000              #pragma debug struct_end
  18  0000              #pragma debug union_end
  18  0000              #pragma debug union_end
  18  0000              #pragma debug variable 94 1 ___pds2 "__pds2" 1
  18  0000              extern r1:byte
  18  0000              extern r2:byte
  18  0000              extern r3:byte
  64  0000              #line 64 "D:\Users\IIIT\Desktop\Hall0\Sevro_TM_button.c"
  64  0000              @code .section at 0 'code'
  64  0000  1F0B        	clr bp
  64  0001  2800     R  	jmp _main_startup1
  64  0002              
  64  0002              extern _builtin_holtek_mulhi3_2:byte
  64  0002              extern _builtin_holtek_mulhi3:near
  64  0002              extern _builtin_holtek_udivmodhi4_2:byte
  64  0002              extern _builtin_holtek_udivmodhi4:near
  64  0002              
  64  0002              ; 
  64  0002              ; Generated by holtek-gcc v3.18, Mon Nov 12 17:38:30 2018
  64  0002              ; Rebuild 521
  64  0002              ; end of file


        0 Errors, 0