"File: Sevro_TM_button.c  Assembler  Version HGASM0202      Page 1


   1  0000              ; Generated by holtek-gcc v3.18, Sun Nov 11 23:07:51 2018
   2  0000              ; 
   3  0000              ; Configuration:
   4  0000              ;       with long instruction
   5  0000              ;       Multi-ROM, Multi-RAM
   6  0000              ;       bits_per_rom_unit:16
   7  0000              ;       with mp1
   8  0000              ;       with tbhp, address(0x9)
   9  0000              ;          Use tabrd-const
  10  0000              ;       
  11  0000              ; SFR address of long-instruction arch:
  12  0000              ;    mp0 = -1,1,0
  13  0000              ;    mp1 = 4,3,2
  14  0000              ;    mp2 = 14,13,12
  15  0000              ;    tbp = 9,7,8
  16  0000              ;    acc = 5
  17  0000              ;    pcl = 6
  18  0000              ;    status = 10
  19  0000              ;    bp = 11
  20  0000              ;    intc = 48
  21  0000              ;       
  22  0000              ;       
  23  0000              ; use 'tabrdc' instead of 'tabrd'
  24  0000              ;       
  25  0000              
  26  0000              #pragma translator "holtek-gcc 4.6.4" "3.18" "build 20130711"
  27  0000              ; Rebuild 521
  28  0000              
  29  0000              ir equ [2]
  30  0000              mp equ [3]
  31  0000              sbp equ [4]
  32  0000              acc equ [5]
  33  0000              bp equ [11]
  34  0000              tblp equ [7]
  35  0000              tbhp equ [9]
  36  0000              status equ [10]
  37  0000              c equ [10].0
  38  0000              ac equ [10].1
  39  0000              z equ [10].2
  40  0000              ov equ [10].3
  41  0000              cz equ [10].6
  42  0000              sc equ [10].7
  43  0000              intc equ [48]
  44  0000              
  45  0000              extern ra:byte
  46  0000              extern rb:byte
  47  0000              extern rc:byte
  48  0000              extern rd:byte
  49  0000              extern re:byte
  50  0000              extern rf:byte
  51  0000              extern rg:byte
  52  0000              extern rh:byte
  53  0000              extern _Crom2Prom:near
  54  0000              extern _Crom2PromNext:near
  55  0000              
  56  0000              RAMBANK 0 @BITDATASEC, @BITDATASEC1
  57  0000              @HCCINIT	.section 'data'
  58  0000              @HCCINIT0	.section 'data'
  59  0000              @BITDATASEC	 .section 'data'
"File: Sevro_TM_button.ASM  Assembler  Version HGASM0202      Page 2

  60  0000              @BITDATASEC1	 .section 'data'
  61  0000              
  62  0000              #pragma debug scope 1 1
  63  0000              	extern __DELAY3:near
  64  0000              	extern __DELAYX3:near
  65  0000              	extern __DELAYX6:near
  66  0000              	extern __DELAYY5:near
  67  0000              	extern __DELAYY3:near
  68  0000              	extern _builtin_holtek_delay_2:byte
  69  0000              ___tm4c0 equ [336]
  70  0000              ___tm4c1 equ [337]
  71  0000              ___tm4al equ [340]
  72  0000              ___tm4ah equ [341]
  73  0000              ___tm0c0 equ [94]
  74  0000              ___tm0c1 equ [95]
  75  0000              ___tm2c0 equ [81]
  76  0000              ___tm2c1 equ [82]
  77  0000              ___intc3 equ [51]
  78  0000              ___mfi4 equ [56]
  79  0000              public _TM_Set
  80  0000              #pragma debug scope 2 1

  96  0000              #line 96 "D:\Users\IIIT\Desktop\Hall\Sevro_TM_button.c"
  96  0000              _TM_Set .section 'code'
  96  0000              _TM_Set proc
  97  0000              #line 97 "D:\Users\IIIT\Desktop\Hall\Sevro_TM_button.c"
  97  0000  0F20        	mov a,32
  97  0001  80D0 0001   	lmov [336],a
  98  0003              #line 98 "D:\Users\IIIT\Desktop\Hall\Sevro_TM_button.c"
  98  0003  0FC1        	mov a,193
  98  0004  80D1 0001   	lmov [337],a
  99  0006              #line 99 "D:\Users\IIIT\Desktop\Hall\Sevro_TM_button.c"
  99  0006  0F88        	mov a,136
  99  0007  80D4 0001   	lmov [340],a
  99  0009  0F13        	mov a,19
  99  000A  80D5 0001   	lmov [341],a
 100  000C              #line 100 "D:\Users\IIIT\Desktop\Hall\Sevro_TM_button.c"
 100  000C  0F10        	mov a,16
 100  000D  00DE        	mov [94],a
 101  000E              #line 101 "D:\Users\IIIT\Desktop\Hall\Sevro_TM_button.c"
 101  000E  0FC1        	mov a,193
 101  000F  00DF        	mov [95],a
 102  0010              #line 102 "D:\Users\IIIT\Desktop\Hall\Sevro_TM_button.c"
 102  0010  1F51        	clr [81]
 102  0011  0F31        	mov a,49
 102  0012  00D2        	mov [82],a
 103  0013              #line 103 "D:\Users\IIIT\Desktop\Hall\Sevro_TM_button.c"
 103  0013  3133        	set [51].2
 103  0014  30B8        	set [56].1
 104  0015              #line 104 "D:\Users\IIIT\Desktop\Hall\Sevro_TM_button.c"
 104  0015  B1D0 0001   	lset [336].3
 105  0017              #line 105 "D:\Users\IIIT\Desktop\Hall\Sevro_TM_button.c"
 105  0017  1F00     R  	clr _SEC[0]
 105  0018  0F64        	mov a,100
 105  0019  0080     R  	mov _R1sec[0],a
 105  001A  0F01        	mov a,1
 105  001B  0080     R  	mov _AD10ms[0],a
 105  001C  0F14        	mov a,20
 105  001D  0080     R  	mov _Hall200ms[0],a
 105  001E  0003        	ret
"File: Sevro_TM_button.c  Assembler  Version HGASM0202      Page 3

 105  001F              _TM_Set endp
 105  001F              #line 105 "D:\Users\IIIT\Desktop\Hall\Sevro_TM_button.c"
 105  001F              #pragma debug scope 1 1
 105  001F              ___pac equ [19]
 105  001F              ___papu equ [17]
 105  001F              ___integ equ [57]
 105  001F              ___intc0 equ [48]
 105  001F              ___ifs0 equ [328]
 105  001F              ___ifs1 equ [329]
 105  001F              public _Interrupt_Set
 105  001F              #pragma debug scope 3 1
 108  001F              #line 108 "D:\Users\IIIT\Desktop\Hall\Sevro_TM_button.c"
 108  0000              _Interrupt_Set .section 'code'
 108  0000              _Interrupt_Set proc
 109  0000              #line 109 "D:\Users\IIIT\Desktop\Hall\Sevro_TM_button.c"
 109  0000  3193        	set [19].3
 109  0001  3191        	set [17].3
 110  0002              #line 110 "D:\Users\IIIT\Desktop\Hall\Sevro_TM_button.c"
 110  0002  3213        	set [19].4
 110  0003  3211        	set [17].4
 111  0004              #line 111 "D:\Users\IIIT\Desktop\Hall\Sevro_TM_button.c"
 111  0004  0F06        	mov a,6
 111  0005  00B9        	mov [57],a
 112  0006              #line 112 "D:\Users\IIIT\Desktop\Hall\Sevro_TM_button.c"
 112  0006  30B0        	set [48].1
 113  0007              #line 113 "D:\Users\IIIT\Desktop\Hall\Sevro_TM_button.c"
 113  0007  9F48 0001   	lclr [328]
 114  0009              #line 114 "D:\Users\IIIT\Desktop\Hall\Sevro_TM_button.c"
 114  0009  3130        	set [48].2
 115  000A              #line 115 "D:\Users\IIIT\Desktop\Hall\Sevro_TM_button.c"
 115  000A  9F49 0001   	lclr [329]
 115  000C  0003        	ret
 115  000D              _Interrupt_Set endp
 115  000D              #line 115 "D:\Users\IIIT\Desktop\Hall\Sevro_TM_button.c"
 115  000D              #pragma debug scope 1 1
 115  000D              ___pec equ [35]
 115  000D              ___pepu equ [33]
 115  000D              ___pds2 equ [366]
 115  000D              ___tm2rp equ [87]
 115  000D              public _Moto_Set
 115  000D              #pragma debug scope 4 1
 118  000D              #line 118 "D:\Users\IIIT\Desktop\Hall\Sevro_TM_button.c"
 118  0000              _Moto_Set .section 'code'
 118  0000              _Moto_Set proc
 119  0000              #line 119 "D:\Users\IIIT\Desktop\Hall\Sevro_TM_button.c"
 119  0000  3023        	set [35].0
 119  0001  3021        	set [33].0
 120  0002              #line 120 "D:\Users\IIIT\Desktop\Hall\Sevro_TM_button.c"
 120  0002  30A3        	set [35].1
 120  0003  30A1        	set [33].1
 121  0004              #line 121 "D:\Users\IIIT\Desktop\Hall\Sevro_TM_button.c"
 121  0004  0F01        	mov a,1
 121  0005  80EE 0001   	lmov [366],a
 122  0007              #line 122 "D:\Users\IIIT\Desktop\Hall\Sevro_TM_button.c"
 122  0007  1F51        	clr [81]
 123  0008              #line 123 "D:\Users\IIIT\Desktop\Hall\Sevro_TM_button.c"
 123  0008  0FA8        	mov a,168
 123  0009  00D2        	mov [82],a
 124  000A              #line 124 "D:\Users\IIIT\Desktop\Hall\Sevro_TM_button.c"
 124  000A  0FA0        	mov a,160
"File: Sevro_TM_button.c  Assembler  Version HGASM0202      Page 4

 124  000B  00D7        	mov [87],a
 125  000C              #line 125 "D:\Users\IIIT\Desktop\Hall\Sevro_TM_button.c"
 125  000C  31D1        	set [81].3
 125  000D  0003        	ret
 125  000E              _Moto_Set endp
 125  000E              #line 125 "D:\Users\IIIT\Desktop\Hall\Sevro_TM_button.c"
 125  000E              #pragma debug scope 1 1
 125  000E              ___tm2al equ [85]
 125  000E              ___tm2ah equ [86]
 125  000E              public _Moto_C
 125  000E              #pragma debug scope 5 1
 128  000E              #line 128 "D:\Users\IIIT\Desktop\Hall\Sevro_TM_button.c"
 128  0000              _Moto_C .section 'code'
 128  0000              _Moto_C proc
 128  0000  00              local _Moto_C_2 db 1 dup(?)	; 0,1
 128  0000  0080     R  	mov _Moto_C_2[0],a
 128  0001              #pragma debug variable 8 5 _Moto_C_2+0 "angle"
 129  0001              #line 129 "D:\Users\IIIT\Desktop\Hall\Sevro_TM_button.c"
 129  0001  0700     R  	mov a,_Index[0]  
 129  0002  0080     E  	mov _builtin_holtek_mulhi3_2[0],a  
 129  0003  0700     R  	mov a,_Index[1]  
 129  0004  0080     E  	mov _builtin_holtek_mulhi3_2[1],a
 129  0005  0F14        	mov a,20  
 129  0006  0080     E  	mov _builtin_holtek_mulhi3_2[2],a  
 129  0007  1F00     E  	clr _builtin_holtek_mulhi3_2[3]
 129  0008              	fcall _builtin_holtek_mulhi3
 129  000F  0700     E  	mov a,_builtin_holtek_mulhi3_2[4]  
 129  0010  0080     E  	mov rd,a  
 129  0011  0700     E  	mov a,_builtin_holtek_mulhi3_2[5]  
 129  0012  0080     E  	mov re,a
 129  0013  0FE8        	mov a,232
 129  0014  0380     E  	addm a,rd
 129  0015  0F03        	mov a,3
 129  0016  1380     E  	adcm a,re
 130  0017              #line 130 "D:\Users\IIIT\Desktop\Hall\Sevro_TM_button.c"
 130  0017  0700     E  	mov a,rd
 130  0018  0080     E  	mov rb,a
 130  0019  0700     E  	mov a,re
 130  001A  0080     E  	mov rc,a
 130  001B  0FFF        	mov a,255  
 130  001C  0680     E  	andm a,rb  
 130  001D  0F80        	mov a,128  
 130  001E  0680     E  	andm a,rc
 130  001F  3800     E  	snz rc.7
 130  0020  2800     R  	jmp _L5
 130  0021              #line 130 "D:\Users\IIIT\Desktop\Hall\Sevro_TM_button.c"
 130  0021  0FFF        	mov a,255
 130  0022  0380     E  	addm a,rb
 130  0023  0FFF        	mov a,255
 130  0024  1380     E  	adcm a,rc
 130  0025  0FFF        	mov a,255
 130  0026  0580     E  	orm a,rc
 130  0027  0F00        	mov a,0
 130  0028  0580     E  	orm a,rb
 130  0029  1480     E  	inc rb
 130  002A  3D0A        	sz z
 130  002B  1480     E  	inc rc
 130  002C              _L5:
 130  002C  0700     E  	mov a,rb
 130  002D  00D5        	mov [85],a
"File: Sevro_TM_button.c  Assembler  Version HGASM0202      Page 5

 131  002E              #line 131 "D:\Users\IIIT\Desktop\Hall\Sevro_TM_button.c"
 131  002E  0700     E  	mov a,rd
 131  002F  0080     E  	mov rb,a
 131  0030  0700     E  	mov a,re
 131  0031  0080     E  	mov rc,a
 131  0032  3800     E  	snz re.7
 131  0033  2800     R  	jmp _L6
 131  0034  0FFF        	mov a,255
 131  0035  0300     E  	add a,rd
 131  0036  0080     E  	mov rb,a
 131  0037  0F00        	mov a,0
 131  0038  1300     E  	adc a,re
 131  0039  0080     E  	mov rc,a
 131  003A              _L6:
 131  003A  0700     E  	mov a,rc
 131  003B  00D6        	mov [86],a
 132  003C              #line 132 "D:\Users\IIIT\Desktop\Hall\Sevro_TM_button.c"
 132  003C  0700     E  	mov a,rd
 132  003D  0080     E  	mov ra,a
 132  003E  0700     E  	mov a,re
 132  003F  0080     E  	mov rb,a
 132  0040  1A00     E  	rlca rb
 132  0041  1B80     E  	rrc rb
 132  0042  1B80     E  	rrc ra
 132  0043  0700     E  	mov a,ra
 132  0044  0080     R  	mov _temp[0],a
 132  0045  0700     E  	mov a,rb
 132  0046  0080     R  	mov _temp[1],a
 133  0047              #line 133 "D:\Users\IIIT\Desktop\Hall\Sevro_TM_button.c"
 133  0047  0700     R  	mov a,_Moto_C_2[0]
 133  0048  0080     R  	mov _Index[0],a
 133  0049  1F00     R  	clr _Index[1]
 133  004A  0003        	ret
 133  004B              _Moto_C endp
 133  004B              #line 133 "D:\Users\IIIT\Desktop\Hall\Sevro_TM_button.c"
 133  004B              #pragma debug scope 1 1
 133  004B              ___adcr0 equ [104]
 133  004B              ___adcr1 equ [105]
 133  004B              ___pas0 equ [352]
 133  004B              ___pas3 equ [355]
 133  004B              public _AD_Set
 133  004B              #pragma debug scope 6 1
 136  004B              #line 136 "D:\Users\IIIT\Desktop\Hall\Sevro_TM_button.c"
 136  0000              _AD_Set .section 'code'
 136  0000              _AD_Set proc
 137  0000              #line 137 "D:\Users\IIIT\Desktop\Hall\Sevro_TM_button.c"
 137  0000  0F01        	mov a,1
 137  0001  00E8        	mov [104],a
 138  0002              #line 138 "D:\Users\IIIT\Desktop\Hall\Sevro_TM_button.c"
 138  0002  0F66        	mov a,102
 138  0003  00E9        	mov [105],a
 139  0004              #line 139 "D:\Users\IIIT\Desktop\Hall\Sevro_TM_button.c"
 139  0004  0F30        	mov a,48
 139  0005  80E0 0001   	lmov [352],a
 140  0007              #line 140 "D:\Users\IIIT\Desktop\Hall\Sevro_TM_button.c"
 140  0007  0F03        	mov a,3
 140  0008  80E3 0001   	lmov [355],a
 140  000A  0003        	ret
 140  000B              _AD_Set endp
 140  000B              #line 140 "D:\Users\IIIT\Desktop\Hall\Sevro_TM_button.c"
"File: Sevro_TM_button.c  Assembler  Version HGASM0202      Page 6

 140  000B              #pragma debug scope 1 1
 140  000B              public _button_up
 140  000B              #pragma debug scope 7 1
 144  000B              #line 144 "D:\Users\IIIT\Desktop\Hall\Sevro_TM_button.c"
 144  000B              rombank 0 @button_up_code
 144  0000              @button_up_code .section at 4 'code'
 144  0000  0080     E  	mov r1,a
 144  0001  070B        	mov a,bp
 144  0002  1F0B        	clr bp
 144  0003  2800     R  	jmp _button_up
 144  0004              ROMBANK 0 _button_up
 144  0004              #pragma debug scope 1 1
 144  0004              @dummy4 endp
 144  0004              #pragma debug scope 8 1
 144  0000              _button_up .section 'code'
 144  0000              _button_up proc
 144  0000  0080     E  	mov r2,a
 144  0001  070A        	mov a, status
 144  0002  0080     E  	mov r3,a
 145  0003              #line 145 "D:\Users\IIIT\Desktop\Hall\Sevro_TM_button.c"
 145  0003  1480     R  	inc _HallCount[0]
 146  0004              #line 146 "D:\Users\IIIT\Desktop\Hall\Sevro_TM_button.c"
 146  0004  3630        	clr [48].4
 146  0005  0700     E  	mov a,r2
 146  0006  008B        	mov bp,a
 146  0007  0700     E  	mov a,r3
 146  0008  008A        	mov status,a
 146  0009  0700     E  	mov a,r1
 146  000A  0004        	reti
 146  000B              _button_up endp
 146  000B              
 146  000B              #line 146 "D:\Users\IIIT\Desktop\Hall\Sevro_TM_button.c"
 146  000B              #pragma debug scope 1 1
 146  000B              ___pb equ [22]
 146  000B              public _Button_Down
 146  000B              #pragma debug scope 9 1
 150  000B              #line 150 "D:\Users\IIIT\Desktop\Hall\Sevro_TM_button.c"
 150  000B              rombank 0 @Button_Down_code
 150  0000              @Button_Down_code .section at 8 'code'
 150  0000  0080     E  	mov r1,a
 150  0001  070B        	mov a,bp
 150  0002  1F0B        	clr bp
 150  0003  2800     R  	jmp _Button_Down
 150  0004              ROMBANK 0 _Button_Down
 150  0004              #pragma debug scope 1 1
 150  0004              @dummy8 endp
 150  0004              #pragma debug scope 10 1
 150  0000              _Button_Down .section 'code'
 150  0000              _Button_Down proc
 150  0000  0080     E  	mov r2,a
 150  0001  070A        	mov a, status
 150  0002  0080     E  	mov r3,a
 151  0003              #line 151 "D:\Users\IIIT\Desktop\Hall\Sevro_TM_button.c"
 151  0003  3396        	set [22].7
 152  0004              #line 152 "D:\Users\IIIT\Desktop\Hall\Sevro_TM_button.c"
 152  0004  36B0        	clr [48].5
 152  0005  0700     E  	mov a,r2
 152  0006  008B        	mov bp,a
 152  0007  0700     E  	mov a,r3
 152  0008  008A        	mov status,a
"File: Sevro_TM_button.c  Assembler  Version HGASM0202      Page 7

 152  0009  0700     E  	mov a,r1
 152  000A  0004        	reti
 152  000B              _Button_Down endp
 152  000B              
 152  000B              #line 152 "D:\Users\IIIT\Desktop\Hall\Sevro_TM_button.c"
 152  000B              #pragma debug scope 1 1
 152  000B              public _Delay100us
 152  000B              #pragma debug scope 11 1
 183  000B              #line 183 "D:\Users\IIIT\Desktop\Hall\Sevro_TM_button.c"
 183  0000              _Delay100us .section 'code'
 183  0000              _Delay100us proc
 183  0000              public _Delay100us_2
 183  0000  0002[           local _Delay100us_2 db 2 dup(?)	; 2,0
            00
            ]
 183  0002              #pragma debug variable 10 11 _Delay100us_2+0 "del"
 185  0002              #line 185 "D:\Users\IIIT\Desktop\Hall\Sevro_TM_button.c"
 185  0000  1F00     E  	clr rb
 185  0001  1F00     E  	clr rc
 185  0002              _L12:
 185  0002              #line 185 "D:\Users\IIIT\Desktop\Hall\Sevro_TM_button.c"
 185  0002  0700     E  	mov a,rb
 185  0003  0200     R  	sub a,_Delay100us_2[0]
 185  0004  0700     E  	mov a,rc
 185  0005  1200     R  	sbc a,_Delay100us_2[1]
 185  0006  3F0A        	sz cz
 185  0007  2800     R  	jmp _L11
 185  0008  1F00     E  	clr ra
 185  0009              _L15:
 187  0009              #line 187 "D:\Users\IIIT\Desktop\Hall\Sevro_TM_button.c"
 187  0009              ;# 187 "D:\Users\IIIT\Desktop\Hall\Sevro_TM_button.c" 1
 187  0009  0000        	nop
 187  000A  1480     E  	inc ra
 186  000B              #line 186 "D:\Users\IIIT\Desktop\Hall\Sevro_TM_button.c"
 186  000B  0700     E  	mov a,ra
 186  000C  0A1A        	sub a,26
 186  000D  390A        	snz z
 186  000E  2800     R  	jmp _L15
 185  000F              #line 185 "D:\Users\IIIT\Desktop\Hall\Sevro_TM_button.c"
 185  000F  1480     E  	inc rb
 185  0010  3D0A        	sz z
 185  0011  1480     E  	inc rc
 185  0012  2800     R  	jmp _L12
 185  0013              _L11:
 185  0013  0003        	ret
 185  0014              _Delay100us endp
 185  0014              #line 185 "D:\Users\IIIT\Desktop\Hall\Sevro_TM_button.c"
 185  0014              #pragma debug scope 1 1
 185  0014              public _delay_ms
 185  0014              #pragma debug scope 12 1
 190  0014              #line 190 "D:\Users\IIIT\Desktop\Hall\Sevro_TM_button.c"
 190  0000              _delay_ms .section 'code'
 190  0000              _delay_ms proc
 190  0000  00              local _delay_ms_2 db 1 dup(?)	; 0,1
 190  0000  0080     R  	mov _delay_ms_2[0],a
 190  0001              #pragma debug variable 8 12 _delay_ms_2+0 "del"
 192  0001              #line 192 "D:\Users\IIIT\Desktop\Hall\Sevro_TM_button.c"
 192  0001  1F00     E  	clr ra
 192  0002  2800     R  	jmp _L17
 192  0003              _L18:
"File: Sevro_TM_button.c  Assembler  Version HGASM0202      Page 8

 193  0003              #line 193 "D:\Users\IIIT\Desktop\Hall\Sevro_TM_button.c"
 193  0003              ;# 193 "D:\Users\IIIT\Desktop\Hall\Sevro_TM_button.c" 1
 193  0003              	IF 2000>263690
 193  0003              ;# 193 "D:\Users\IIIT\Desktop\Hall\Sevro_TM_button.c" 1
 193  0003              	ERRMESSAGE 'the value 2000of the argument exceeds the maxinum 263690'
 193  0003              	ENDIF
 193  0003              ;# 193 "D:\Users\IIIT\Desktop\Hall\Sevro_TM_button.c" 1
 193  0003              	IF 2000<0
 193  0003              ;# 193 "D:\Users\IIIT\Desktop\Hall\Sevro_TM_button.c" 1
 193  0003              	ERRMESSAGE 'the value 2000 of the argument exceeds the mininum 0'
 193  0003              	ENDIF
 193  0003              ;# 193 "D:\Users\IIIT\Desktop\Hall\Sevro_TM_button.c" 1
 193  0003              	IF 2000==0
 193  0003              ;# 193 "D:\Users\IIIT\Desktop\Hall\Sevro_TM_button.c" 1
 193  0003              	JMP $
 193  0003              	ENDIF
 193  0003              ;# 193 "D:\Users\IIIT\Desktop\Hall\Sevro_TM_button.c" 1
 193  0003              	IF (2000>=1) AND (2000<( 4 + __PBP__ * 2))
 193  0003              ;# 193 "D:\Users\IIIT\Desktop\Hall\Sevro_TM_button.c" 1
 193  0003              	NOP
 193  0003              	ENDIF
 193  0003              ;# 193 "D:\Users\IIIT\Desktop\Hall\Sevro_TM_button.c" 1
 193  0003              	IF (2000>=2) AND (2000<( 4 + __PBP__ * 2))
 193  0003              ;# 193 "D:\Users\IIIT\Desktop\Hall\Sevro_TM_button.c" 1
 193  0003              	NOP
 193  0003              	ENDIF
 193  0003              ;# 193 "D:\Users\IIIT\Desktop\Hall\Sevro_TM_button.c" 1
 193  0003              	IF (2000>=3) AND (2000<( 4 + __PBP__ * 2))
 193  0003              ;# 193 "D:\Users\IIIT\Desktop\Hall\Sevro_TM_button.c" 1
 193  0003              	NOP
 193  0003              	ENDIF
 193  0003              ;# 193 "D:\Users\IIIT\Desktop\Hall\Sevro_TM_button.c" 1
 193  0003              	IF (2000>=4) AND (2000<( 4 + __PBP__ * 2)) AND ( __PBP__ > 0 )
 193  0003              ;# 193 "D:\Users\IIIT\Desktop\Hall\Sevro_TM_button.c" 1
 193  0003              	NOP
 193  0003              	ENDIF
 193  0003              ;# 193 "D:\Users\IIIT\Desktop\Hall\Sevro_TM_button.c" 1
 193  0003              	IF (2000>=5) AND (2000<( 4 + __PBP__ * 2)) AND ( __PBP__ > 0 )
 193  0003              ;# 193 "D:\Users\IIIT\Desktop\Hall\Sevro_TM_button.c" 1
 193  0003              	NOP
 193  0003              	ENDIF
 193  0003              ;# 193 "D:\Users\IIIT\Desktop\Hall\Sevro_TM_button.c" 1
 193  0003              	IF (2000>=6) AND (2000<( 4 + __PBP__ * 2))  AND ( __PBP__ > 1 )
 193  0003              ;# 193 "D:\Users\IIIT\Desktop\Hall\Sevro_TM_button.c" 1
 193  0003              	NOP
 193  0003              	ENDIF
 193  0003              ;# 193 "D:\Users\IIIT\Desktop\Hall\Sevro_TM_button.c" 1
 193  0003              	IF (2000>=7) AND (2000<( 4 + __PBP__ * 2))  AND ( __PBP__ > 1 )
 193  0003              ;# 193 "D:\Users\IIIT\Desktop\Hall\Sevro_TM_button.c" 1
 193  0003              	NOP
 193  0003              	ENDIF
 193  0003              ;# 193 "D:\Users\IIIT\Desktop\Hall\Sevro_TM_button.c" 1
 193  0003              	IF (2000>=8) AND (2000<( 4 + __PBP__ * 2))  AND ( __PBP__ > 2 )
 193  0003              ;# 193 "D:\Users\IIIT\Desktop\Hall\Sevro_TM_button.c" 1
 193  0003              	NOP
 193  0003              	ENDIF
 193  0003              ;# 193 "D:\Users\IIIT\Desktop\Hall\Sevro_TM_button.c" 1
 193  0003              	IF (2000==9)  AND ( __PBP__ > 2 )
 193  0003              ;# 193 "D:\Users\IIIT\Desktop\Hall\Sevro_TM_button.c" 1
 193  0003              	NOP
"File: Sevro_TM_button.c  Assembler  Version HGASM0202      Page 9

 193  0003              	ENDIF
 193  0003              ;# 193 "D:\Users\IIIT\Desktop\Hall\Sevro_TM_button.c" 1
 193  0003              	IF (2000< ( 8 + __PBP__ * 2)) AND (2000>( 3 + __PBP__ * 2))
 193  0003              ;# 193 "D:\Users\IIIT\Desktop\Hall\Sevro_TM_button.c" 1
 193  0003              	fcall __DELAY3 + ( 7 + __PBP__ * 2) -2000
 193  0003              	ENDIF
 193  0003              ;# 193 "D:\Users\IIIT\Desktop\Hall\Sevro_TM_button.c" 1
 193  0003              	IF (2000< ( 0404h + __PBP__ * 2)) AND (2000>( 7 + __PBP__ * 2))
 193  0003              ;# 193 "D:\Users\IIIT\Desktop\Hall\Sevro_TM_button.c" 1
 193  0003              	MOV A,(2000-( 4 + __PBP__ * 2))/4
 193  0003              ;# 193 "D:\Users\IIIT\Desktop\Hall\Sevro_TM_button.c" 1
 193  0003              	fcall __DELAYX3 + 3 -((2000-( 4 + __PBP__ * 2)) MOD 4) 
 193  0003              	ENDIF
 193  0003              ;# 193 "D:\Users\IIIT\Desktop\Hall\Sevro_TM_button.c" 1
 193  0003              	IF (2000< ( 040bh + __PBP__ * 2)) AND (2000> ( 0403h + __PBP__ * 2))
 193  0003              ;# 193 "D:\Users\IIIT\Desktop\Hall\Sevro_TM_button.c" 1
 193  0003              	MOV A,0 
 193  0003              ;# 193 "D:\Users\IIIT\Desktop\Hall\Sevro_TM_button.c" 1
 193  0003              	fcall __DELAYX6 + ( 040ah + __PBP__ * 2) -2000
 193  0003              	ENDIF
 193  0003              ;# 193 "D:\Users\IIIT\Desktop\Hall\Sevro_TM_button.c" 1
 193  0003              	IF (2000 >= ( 040bh + __PBP__ * 2)) AND ((((2000-( 9 + __PBP__ * 2))%0402h)/4+1)>256)
 193  0003              ;# 193 "D:\Users\IIIT\Desktop\Hall\Sevro_TM_button.c" 1
 193  0003              	MOV A,(2000-( 9 + __PBP__ * 2))/0402h
 193  0003              ;# 193 "D:\Users\IIIT\Desktop\Hall\Sevro_TM_button.c" 1
 193  0003              	MOV _builtin_holtek_delay_2,A
 193  0003              ;# 193 "D:\Users\IIIT\Desktop\Hall\Sevro_TM_button.c" 1
 193  0003              	MOV A,0
 193  0003              ;# 193 "D:\Users\IIIT\Desktop\Hall\Sevro_TM_button.c" 1
 193  0003              	fcall __DELAYY5 +5- (((2000-( 9 + __PBP__ * 2))%0402h)%6) 
 193  0003              	ENDIF
 193  0003              ;# 193 "D:\Users\IIIT\Desktop\Hall\Sevro_TM_button.c" 1
 193  0003              	IF (2000 >= ( 040bh + __PBP__ * 2)) AND ((((2000-( 9 + __PBP__ * 2))%0402h)/4+1)<=256)
 193  0003              ;# 193 "D:\Users\IIIT\Desktop\Hall\Sevro_TM_button.c" 1
 193  0003  0F01        	MOV A,(2000-( 9 + __PBP__ * 2))/0402h
 193  0004              ;# 193 "D:\Users\IIIT\Desktop\Hall\Sevro_TM_button.c" 1
 193  0004  0080     E  	MOV _builtin_holtek_delay_2,A
 193  0005              ;# 193 "D:\Users\IIIT\Desktop\Hall\Sevro_TM_button.c" 1
 193  0005  0FF1        	MOV A,((2000-( 9 + __PBP__ * 2))%0402h)/4+1
 193  0006              ;# 193 "D:\Users\IIIT\Desktop\Hall\Sevro_TM_button.c" 1
 193  0006              	fcall __DELAYY3 +3-(((2000-( 9 + __PBP__ * 2))%0402h)%4) 
 193  000D              	ENDIF
 192  000D              #line 192 "D:\Users\IIIT\Desktop\Hall\Sevro_TM_button.c"
 192  000D  1480     E  	inc ra
 192  000E              _L17:
 192  000E  0700     E  	mov a,ra
 192  000F  0200     R  	sub a,_delay_ms_2[0]
 192  0010  390A        	snz z
 192  0011  2800     R  	jmp _L18
 192  0012  0003        	ret
 192  0013              _delay_ms endp
 192  0013              #line 192 "D:\Users\IIIT\Desktop\Hall\Sevro_TM_button.c"
 192  0013              #pragma debug scope 1 1
 192  0013              ___tm0al equ [98]
 192  0013              ___tm0ah equ [99]
 192  0013              ___pc equ [26]
 192  0013              ___mfi0 equ [52]
 192  0013              public _UARTTxData
 192  0013              #pragma debug scope 13 1
 197  0013              #line 197 "D:\Users\IIIT\Desktop\Hall\Sevro_TM_button.c"
"File: Sevro_TM_button.c  Assembler  Version HGASM0202      Page 10

 197  0000              _UARTTxData .section 'code'
 197  0000              _UARTTxData proc
 197  0000  00              local _UARTTxData_2 db 1 dup(?)	; 0,1
 197  0000  0080     R  	mov _UARTTxData_2[0],a
 197  0001              #pragma debug variable 8 13 _UARTTxData_2+0 "data"
 198  0001              #line 198 "D:\Users\IIIT\Desktop\Hall\Sevro_TM_button.c"
 198  0001  0F41        	mov a,65
 198  0002  00E2        	mov [98],a
 198  0003  0F03        	mov a,3
 198  0004  00E3        	mov [99],a
 199  0005              #line 199 "D:\Users\IIIT\Desktop\Hall\Sevro_TM_button.c"
 199  0005  349A        	clr [26].1
 200  0006              #line 200 "D:\Users\IIIT\Desktop\Hall\Sevro_TM_button.c"
 200  0006  31DE        	set [94].3
 201  0007              #line 201 "D:\Users\IIIT\Desktop\Hall\Sevro_TM_button.c"
 201  0007  36B4        	clr [52].5
 201  0008              _L21:
 202  0008              #line 202 "D:\Users\IIIT\Desktop\Hall\Sevro_TM_button.c"
 202  0008  3AB4        	snz [52].5
 202  0009  2800     R  	jmp _L21
 203  000A              #line 203 "D:\Users\IIIT\Desktop\Hall\Sevro_TM_button.c"
 203  000A  36B4        	clr [52].5
 203  000B  1F00     E  	clr rb
 197  000C              #line 197 "D:\Users\IIIT\Desktop\Hall\Sevro_TM_button.c"
 197  000C  0F01        	mov a,1
 197  000D  0080     E  	mov ra,a
 197  000E              _L25:
 205  000E              #line 205 "D:\Users\IIIT\Desktop\Hall\Sevro_TM_button.c"
 205  000E  0700     E  	mov a,ra
 205  000F  0600     R  	and a,_UARTTxData_2[0]
 205  0010  0080     E  	mov rc,a
 205  0011  0F00        	mov a,0
 205  0012  0200     E  	sub a,rc
 205  0013  0080     E  	mov rd,a
 205  0014  0700     E  	mov a,rd
 205  0015  0580     E  	orm a,rc
 205  0016  1A80     E  	rlc rc
 205  0017  1F00     E  	clr rc
 205  0018  1A80     E  	rlc rc
 205  0019  0700     E  	mov a,rc
 205  001A  0380     E  	addm a,rc
 205  001B  349A        	clr [26].1
 205  001C  0700     E  	mov a,rc
 205  001D  059A        	orm a,[26]
 205  001E              _L23:
 206  001E              #line 206 "D:\Users\IIIT\Desktop\Hall\Sevro_TM_button.c"
 206  001E  3AB4        	snz [52].5
 206  001F  2800     R  	jmp _L23
 207  0020              #line 207 "D:\Users\IIIT\Desktop\Hall\Sevro_TM_button.c"
 207  0020  36B4        	clr [52].5
 208  0021              #line 208 "D:\Users\IIIT\Desktop\Hall\Sevro_TM_button.c"
 208  0021  0700     E  	mov a,ra
 208  0022  0380     E  	addm a,ra
 208  0023  1480     E  	inc rb
 209  0024              #line 209 "D:\Users\IIIT\Desktop\Hall\Sevro_TM_button.c"
 209  0024  0700     E  	mov a,rb
 209  0025  0A08        	sub a,8
 209  0026  390A        	snz z
 209  0027  2800     R  	jmp _L25
 210  0028              #line 210 "D:\Users\IIIT\Desktop\Hall\Sevro_TM_button.c"
"File: Sevro_TM_button.c  Assembler  Version HGASM0202      Page 11

 210  0028  309A        	set [26].1
 210  0029              _L27:
 211  0029              #line 211 "D:\Users\IIIT\Desktop\Hall\Sevro_TM_button.c"
 211  0029  3AB4        	snz [52].5
 211  002A  2800     R  	jmp _L27
 212  002B              #line 212 "D:\Users\IIIT\Desktop\Hall\Sevro_TM_button.c"
 212  002B  35DE        	clr [94].3
 212  002C  0003        	ret
 212  002D              _UARTTxData endp
 212  002D              #line 212 "D:\Users\IIIT\Desktop\Hall\Sevro_TM_button.c"
 212  002D              #pragma debug scope 1 1
 212  002D              public _TranAxis
 212  002D              #pragma debug scope 14 1
 216  002D              #line 216 "D:\Users\IIIT\Desktop\Hall\Sevro_TM_button.c"
 216  0000              _TranAxis .section 'code'
 216  0000              _TranAxis proc
 217  0000              #line 217 "D:\Users\IIIT\Desktop\Hall\Sevro_TM_button.c"
 217  0000  0700     R  	mov a,_Head[0]
 217  0001  0080     E  	mov ra,a
 217  0002  0700     E  	mov a,ra
 217  0003  0300     R  	add a,_AxisX[0]
 217  0004  0080     E  	mov rb,a
 217  0005  0700     E  	mov a,rb
 217  0006  0080     R  	mov _AXSUM[0],a
 218  0007              #line 218 "D:\Users\IIIT\Desktop\Hall\Sevro_TM_button.c"
 218  0007  0100     E  	cpla rb
 218  0008  0080     E  	mov rb,a
 219  0009              #line 219 "D:\Users\IIIT\Desktop\Hall\Sevro_TM_button.c"
 219  0009  1400     E  	inca rb
 219  000A  0080     R  	mov _AXCRC[0],a
 220  000B              #line 220 "D:\Users\IIIT\Desktop\Hall\Sevro_TM_button.c"
 220  000B  0700     E  	mov a,ra
 220  000C              	fcall _UARTTxData
 221  0013              #line 221 "D:\Users\IIIT\Desktop\Hall\Sevro_TM_button.c"
 221  0013  0700     R  	mov a,_XArrSort[4]
 221  0014              	fcall _UARTTxData
 222  001B              #line 222 "D:\Users\IIIT\Desktop\Hall\Sevro_TM_button.c"
 222  001B  0700     R  	mov a,_AXCRC[0]
 222  001C              	fcall _UARTTxData
 222  0023  0003        	ret
 222  0024              _TranAxis endp
 222  0024              #line 222 "D:\Users\IIIT\Desktop\Hall\Sevro_TM_button.c"
 222  0024              #pragma debug scope 1 1
 222  0024              public _TranHall
 222  0024              #pragma debug scope 15 1
 226  0024              #line 226 "D:\Users\IIIT\Desktop\Hall\Sevro_TM_button.c"
 226  0000              _TranHall .section 'code'
 226  0000              _TranHall proc
 231  0000              #line 231 "D:\Users\IIIT\Desktop\Hall\Sevro_TM_button.c"
 231  0000  0700     R  	mov a,_HallHead[0]
 231  0001              	fcall _UARTTxData
 232  0008              #line 232 "D:\Users\IIIT\Desktop\Hall\Sevro_TM_button.c"
 232  0008  0700     R  	mov a,_HallData[0]
 232  0009              	fcall _UARTTxData
 232  0010  0003        	ret
 232  0011              _TranHall endp
 232  0011              #line 232 "D:\Users\IIIT\Desktop\Hall\Sevro_TM_button.c"
 232  0011              #pragma debug scope 1 1
 232  0011              ___pcc equ [27]
 232  0011              ___wdtc equ [62]
"File: Sevro_TM_button.c  Assembler  Version HGASM0202      Page 12

 232  0011              public _main
 232  0011              #pragma debug scope 16 1
  59  0011              #line 59 "D:\Users\IIIT\Desktop\Hall\Sevro_TM_button.c"
  59  0011              IFDEF WITH_DEFAULT_STARTUP
  59  0011              extern _main_initial0:near
  59  0011              extern _main_startup:near
  59  0011              ENDIF
  59  0011              
  59  0011              ROMBANK 0 @start
  59  0000              @start .section com_l 'code'
  59  0000              _main_startup1:
  59  0000              @start .section com_e 'code'
  59  0000  0F00     R  	mov a,bank _main
  59  0001  008B        	mov bp,a
  59  0002  2800     R  	jmp _main
  59  0003              
  59  0000              _main .section 'code'
  59  0000              _main proc
  60  0000              #line 60 "D:\Users\IIIT\Desktop\Hall\Sevro_TM_button.c"
  60  0000  309A        	set [26].1
  60  0001  349B        	clr [27].1
  61  0002              #line 61 "D:\Users\IIIT\Desktop\Hall\Sevro_TM_button.c"
  61  0002  0FAB        	mov a,171
  61  0003  00BE        	mov [62],a
  62  0004              #line 62 "D:\Users\IIIT\Desktop\Hall\Sevro_TM_button.c"
  62  0004  0F03        	mov a,3
  62  0005  0080     R  	mov _Head[0],a
  63  0006              #line 63 "D:\Users\IIIT\Desktop\Hall\Sevro_TM_button.c"
  63  0006  0F55        	mov a,85
  63  0007  0080     R  	mov _HallHead[0],a
  65  0008              #line 65 "D:\Users\IIIT\Desktop\Hall\Sevro_TM_button.c"
  65  0008  0FAB        	mov a,171
  65  0009  00BE        	mov [62],a
  66  000A              #line 66 "D:\Users\IIIT\Desktop\Hall\Sevro_TM_button.c"
  66  000A  0F01        	mov a,1
  66  000B  0080     R  	mov _AD10ms[0],a
  66  000C  1F00     R  	clr _Whell[0]
  66  000D  0F32        	mov a,50
  66  000E  0080     R  	mov _Whell100ms[0],a
  67  000F              #line 67 "D:\Users\IIIT\Desktop\Hall\Sevro_TM_button.c"
  67  000F              	fcall _TM_Set
  68  0016              #line 68 "D:\Users\IIIT\Desktop\Hall\Sevro_TM_button.c"
  68  0016              	fcall _Interrupt_Set
  69  001D              #line 69 "D:\Users\IIIT\Desktop\Hall\Sevro_TM_button.c"
  69  001D              	fcall _Moto_Set
  70  0024              #line 70 "D:\Users\IIIT\Desktop\Hall\Sevro_TM_button.c"
  70  0024              	fcall _AD_Set
  71  002B              #line 71 "D:\Users\IIIT\Desktop\Hall\Sevro_TM_button.c"
  71  002B  3030        	set [48].0
  73  002C              #line 73 "D:\Users\IIIT\Desktop\Hall\Sevro_TM_button.c"
  73  002C  0F01        	mov a,1
  73  002D  0080     R  	mov _auto1[0],a
  73  002E  1F00     R  	clr _auto1[1]
  73  002F              _L31:
  77  002F              #line 77 "D:\Users\IIIT\Desktop\Hall\Sevro_TM_button.c"
  77  002F              	fcall _TranAxis
  78  0036              #line 78 "D:\Users\IIIT\Desktop\Hall\Sevro_TM_button.c"
  78  0036              	fcall _TranHall
  78  003D  2800     R  	jmp _L31
  78  003E  2800     R  	jmp $
"File: Sevro_TM_button.c  Assembler  Version HGASM0202      Page 13

  78  003F              _main endp
  78  003F              
  78  003F              @dummy endp
  78  003F              
  78  003F              #line 78 "D:\Users\IIIT\Desktop\Hall\Sevro_TM_button.c"
  78  003F              #pragma debug scope 1 1
  78  003F              public _XArrayAvg
  78  003F              #pragma debug scope 17 1
 236  003F              #line 236 "D:\Users\IIIT\Desktop\Hall\Sevro_TM_button.c"
 236  0000              _XArrayAvg .section 'code'
 236  0000              _XArrayAvg proc
 236  0000  1F00     E  	clr ra
 237  0001              #line 237 "D:\Users\IIIT\Desktop\Hall\Sevro_TM_button.c"
 237  0001  1F00     E  	clr rb
 237  0002  1F00     E  	clr rc
 237  0003              _L33:
 239  0003              #line 239 "D:\Users\IIIT\Desktop\Hall\Sevro_TM_button.c"
 239  0003  0700     E  	mov a,ra
 239  0004  0080     E  	mov rd,a
 239  0005  1F00     E  	clr re
 239  0006  340A        	clr c
 239  0007  1A80     E  	rlc rd
 239  0008  1A80     E  	rlc re
 239  0009  0F00     R  	mov a,low offset _XArr
 239  000A  0300     E  	add a,rd
 239  000B  0083        	mov mp,a
 239  000C  0F00     R  	mov a,high offset _XArr
 239  000D  1300     E  	adc a,re
 239  000E  0084        	mov sbp,a
 239  000F              	fcall _Crom2Prom
 239  0016  0080     E  	mov rd,a
 239  0017              	fcall _Crom2PromNext
 239  001E  0080     E  	mov re,a
 239  001F  0700     E  	mov a,rd
 239  0020  0380     E  	addm a,rb
 239  0021  0700     E  	mov a,re
 239  0022  1380     E  	adcm a,rc
 238  0023              #line 238 "D:\Users\IIIT\Desktop\Hall\Sevro_TM_button.c"
 238  0023  1480     E  	inc ra
 238  0024  0F04        	mov a,4
 238  0025  0200     E  	sub a,ra
 238  0026  3C0A        	sz c
 238  0027  2800     R  	jmp _L33
 238  0028  0700     E  	mov a,ra
 238  0029  0080     R  	mov _i[0],a
 241  002A              #line 241 "D:\Users\IIIT\Desktop\Hall\Sevro_TM_button.c"
 241  002A  1F00     E  	clr _builtin_holtek_udivmodhi4_2[6]
 241  002B  0700     E  	mov a,rb  
 241  002C  0080     E  	mov _builtin_holtek_udivmodhi4_2[0],a  
 241  002D  0700     E  	mov a,rc  
 241  002E  0080     E  	mov _builtin_holtek_udivmodhi4_2[1],a
 241  002F  0F05        	mov a,5  
 241  0030  0080     E  	mov _builtin_holtek_udivmodhi4_2[2],a  
 241  0031  1F00     E  	clr _builtin_holtek_udivmodhi4_2[3]
 241  0032              	fcall _builtin_holtek_udivmodhi4
 241  0039  0700     E  	mov a,_builtin_holtek_udivmodhi4_2[0]  
 241  003A  0080     R  	mov _XArrAvg[0],a  
 241  003B  0700     E  	mov a,_builtin_holtek_udivmodhi4_2[1]  
 241  003C  0080     R  	mov _XArrAvg[1],a
 241  003D  0003        	ret
"File: Sevro_TM_button.c  Assembler  Version HGASM0202      Page 14

 241  003E              _XArrayAvg endp
 241  003E              #line 241 "D:\Users\IIIT\Desktop\Hall\Sevro_TM_button.c"
 241  003E              #pragma debug scope 1 1
 241  003E              public _XArrayPut
 241  003E              #pragma debug scope 18 1
 244  003E              #line 244 "D:\Users\IIIT\Desktop\Hall\Sevro_TM_button.c"
 244  0000              _XArrayPut .section 'code'
 244  0000              _XArrayPut proc
 245  0000              #line 245 "D:\Users\IIIT\Desktop\Hall\Sevro_TM_button.c"
 245  0000  0F05        	mov a,5
 245  0001  0080     R  	mov _i[0],a
 245  0002  0F05        	mov a,5
 245  0003  0080     E  	mov ra,a
 245  0004              _L36:
 246  0004              #line 246 "D:\Users\IIIT\Desktop\Hall\Sevro_TM_button.c"
 246  0004  0700     E  	mov a,ra
 246  0005  0080     E  	mov rb,a
 246  0006  1F00     E  	clr rc
 246  0007  340A        	clr c
 246  0008  1A00     E  	rlca rb
 246  0009  0080     E  	mov rd,a
 246  000A  1A00     E  	rlca rc
 246  000B  0080     E  	mov re,a
 246  000C  0F00     R  	mov a,low (offset _XArr-2)
 246  000D  0300     E  	add a,rd
 246  000E  0083        	mov mp,a
 246  000F  0F00     R  	mov a,high (offset _XArr-2)
 246  0010  1300     E  	adc a,re
 246  0011  0084        	mov sbp,a
 246  0012              	fcall _Crom2Prom
 246  0019  0080     E  	mov rd,a
 246  001A              	fcall _Crom2PromNext
 246  0021  0080     E  	mov re,a
 246  0022  340A        	clr c
 246  0023  1A80     E  	rlc rb
 246  0024  1A80     E  	rlc rc
 246  0025  0F00     R  	mov a,low offset _XArr
 246  0026  0300     E  	add a,rb
 246  0027  0083        	mov mp,a
 246  0028  0F00     R  	mov a,high offset _XArr
 246  0029  1300     E  	adc a,rc
 246  002A  0084        	mov sbp,a
 246  002B  0700     E  	mov a,rd
 246  002C  0082        	mov ir,a
 246  002D  1483        	inc mp
 246  002E  0700     E  	mov a,re
 246  002F  0082        	mov ir,a
 245  0030              #line 245 "D:\Users\IIIT\Desktop\Hall\Sevro_TM_button.c"
 245  0030  1780     E  	sdz ra
 245  0031  2800     R  	jmp _L36
 245  0032  1F00     R  	clr _i[0]
 248  0033              #line 248 "D:\Users\IIIT\Desktop\Hall\Sevro_TM_button.c"
 248  0033  0700     R  	mov a,_AxisX[0]
 248  0034  0080     R  	mov _XArr[0],a
 248  0035  1F00     R  	clr _XArr[1]
 248  0036  0003        	ret
 248  0037              _XArrayPut endp
 248  0037              #line 248 "D:\Users\IIIT\Desktop\Hall\Sevro_TM_button.c"
 248  0037              #pragma debug scope 1 1
 248  0037              public _XArraySort
"File: Sevro_TM_button.c  Assembler  Version HGASM0202      Page 15

 248  0037              #pragma debug scope 19 1
 251  0037              #line 251 "D:\Users\IIIT\Desktop\Hall\Sevro_TM_button.c"
 251  0000              _XArraySort .section 'code'
 251  0000              _XArraySort proc
 251  0000  0005[           local _XArraySort_2 db 5 dup(?)	; 0,5
            00
            ]
 253  0005              #line 253 "D:\Users\IIIT\Desktop\Hall\Sevro_TM_button.c"
 253  0000  1F00     R  	clr _i[0]
 253  0001  1F00     E  	clr ra
 253  0002              _L39:
 254  0002              #line 254 "D:\Users\IIIT\Desktop\Hall\Sevro_TM_button.c"
 254  0002  0700     E  	mov a,ra
 254  0003  0080     E  	mov rb,a
 254  0004  1F00     E  	clr rc
 254  0005  340A        	clr c
 254  0006  1A80     E  	rlc rb
 254  0007  1A80     E  	rlc rc
 254  0008  0F00     R  	mov a,low offset _XArr
 254  0009  0300     E  	add a,rb
 254  000A  0083        	mov mp,a
 254  000B  0F00     R  	mov a,high offset _XArr
 254  000C  1300     E  	adc a,rc
 254  000D  0084        	mov sbp,a
 254  000E              	fcall _Crom2Prom
 254  0015  0080     E  	mov rd,a
 254  0016              	fcall _Crom2PromNext
 254  001D  0080     E  	mov re,a
 254  001E  0F00     R  	mov a,low offset _XArrSort
 254  001F  0300     E  	add a,rb
 254  0020  0083        	mov mp,a
 254  0021  0F00     R  	mov a,high offset _XArrSort
 254  0022  1300     E  	adc a,rc
 254  0023  0084        	mov sbp,a
 254  0024  0700     E  	mov a,rd
 254  0025  0082        	mov ir,a
 254  0026  1483        	inc mp
 254  0027  0700     E  	mov a,re
 254  0028  0082        	mov ir,a
 253  0029              #line 253 "D:\Users\IIIT\Desktop\Hall\Sevro_TM_button.c"
 253  0029  1480     E  	inc ra
 253  002A  0F04        	mov a,4
 253  002B  0200     E  	sub a,ra
 253  002C  3C0A        	sz c
 253  002D  2800     R  	jmp _L39
 256  002E              #line 256 "D:\Users\IIIT\Desktop\Hall\Sevro_TM_button.c"
 256  002E  1F00     R  	clr _i[0]
 256  002F  0700     R  	mov a,_tempx[0]
 256  0030  0080     E  	mov rh,a
 256  0031  0700     R  	mov a,_tempx[1]
 256  0032  0080     E  	mov ra,a
 256  0033  1F00     R  	clr _XArraySort_2[0]
 256  0034              _L41:
 256  0034  0F04        	mov a,4
 256  0035  0200     R  	sub a,_XArraySort_2[0]
 256  0036  380A        	snz c
 256  0037  2800     R  	jmp _L44
 256  0038  1F00     E  	clr rb
 256  0039  1F00     E  	clr rc
 256  003A              _L45:
"File: Sevro_TM_button.c  Assembler  Version HGASM0202      Page 16

 258  003A              #line 258 "D:\Users\IIIT\Desktop\Hall\Sevro_TM_button.c"
 258  003A  1480     E  	inc rb
 258  003B  3D0A        	sz z
 258  003C  1480     E  	inc rc
 258  003D  340A        	clr c
 258  003E  1A00     E  	rlca rb
 258  003F  0080     E  	mov rd,a
 258  0040  1A00     E  	rlca rc
 258  0041  0080     E  	mov re,a
 258  0042  0F00     R  	mov a,low offset _XArrSort
 258  0043  0300     E  	add a,rd
 258  0044  0080     E  	mov rf,a
 258  0045  0F00     R  	mov a,high offset _XArrSort
 258  0046  1300     E  	adc a,re
 258  0047  0080     E  	mov rg,a
 258  0048  0700     E  	mov a,rf
 258  0049  0083        	mov mp,a
 258  004A  0700     E  	mov a,rg
 258  004B  0084        	mov sbp,a
 258  004C              	fcall _Crom2Prom
 258  0053  0080     R  	mov _XArraySort_2[1],a
 258  0054              	fcall _Crom2PromNext
 258  005B  0080     R  	mov _XArraySort_2[2],a
 258  005C  0FFE        	mov a,254
 258  005D  0300     E  	add a,rf
 258  005E  0080     R  	mov _XArraySort_2[3],a
 258  005F  0FFF        	mov a,255
 258  0060  1300     E  	adc a,rg
 258  0061  0080     R  	mov _XArraySort_2[4],a
 258  0062  0700     R  	mov a,_XArraySort_2[3]
 258  0063  0083        	mov mp,a
 258  0064  0700     R  	mov a,_XArraySort_2[4]
 258  0065  0084        	mov sbp,a
 258  0066              	fcall _Crom2Prom
 258  006D  0080     E  	mov rd,a
 258  006E              	fcall _Crom2PromNext
 258  0075  0080     E  	mov re,a
 258  0076  0700     R  	mov a,_XArraySort_2[1]
 258  0077  0200     E  	sub a,rd
 258  0078  0700     R  	mov a,_XArraySort_2[2]
 258  0079  1200     E  	sbc a,re
 258  007A  3C0A        	sz c
 258  007B  2800     R  	jmp _L42
 260  007C              #line 260 "D:\Users\IIIT\Desktop\Hall\Sevro_TM_button.c"
 260  007C  0700     R  	mov a,_XArraySort_2[3]
 260  007D  0083        	mov mp,a
 260  007E  0700     R  	mov a,_XArraySort_2[4]
 260  007F  0084        	mov sbp,a
 260  0080  0700     R  	mov a,_XArraySort_2[1]
 260  0081  0082        	mov ir,a
 260  0082  1483        	inc mp
 260  0083  0700     R  	mov a,_XArraySort_2[2]
 260  0084  0082        	mov ir,a
 261  0085              #line 261 "D:\Users\IIIT\Desktop\Hall\Sevro_TM_button.c"
 261  0085  0700     E  	mov a,rf
 261  0086  0083        	mov mp,a
 261  0087  0700     E  	mov a,rg
 261  0088  0084        	mov sbp,a
 261  0089  0700     E  	mov a,rd
 261  008A  0082        	mov ir,a
"File: Sevro_TM_button.c  Assembler  Version HGASM0202      Page 17

 261  008B  1483        	inc mp
 261  008C  0700     E  	mov a,re
 261  008D  0082        	mov ir,a
 261  008E  0700     E  	mov a,rd
 261  008F  0080     E  	mov rh,a
 261  0090  0700     E  	mov a,re
 261  0091  0080     E  	mov ra,a
 261  0092              _L42:
 257  0092              #line 257 "D:\Users\IIIT\Desktop\Hall\Sevro_TM_button.c"
 257  0092  0700     E  	mov a,rb
 257  0093  0C05        	xor a,5
 257  0094  0500     E  	or a,rc
 257  0095  390A        	snz z
 257  0096  2800     R  	jmp _L45
 257  0097  1480     R  	inc _XArraySort_2[0]
 257  0098  2800     R  	jmp _L41
 257  0099              _L44:
 257  0099  0700     R  	mov a,_XArraySort_2[0]
 257  009A  0080     R  	mov _i[0],a
 257  009B  0700     E  	mov a,rh
 257  009C  0080     R  	mov _tempx[0],a
 257  009D  0700     E  	mov a,ra
 257  009E  0080     R  	mov _tempx[1],a
 257  009F  0003        	ret
 257  00A0              _XArraySort endp
 257  00A0              #line 257 "D:\Users\IIIT\Desktop\Hall\Sevro_TM_button.c"
 257  00A0              #pragma debug scope 1 1
 257  00A0              ___adrl equ [106]
 257  00A0              public _ISR_STM
 257  00A0              #pragma debug scope 20 1
 155  00A0              #line 155 "D:\Users\IIIT\Desktop\Hall\Sevro_TM_button.c"
 155  00A0              rombank 0 @ISR_STM_code
 155  0000              @ISR_STM_code .section at 56 'code'
 155  0000  0080     E  	mov r1,a
 155  0001  070B        	mov a,bp
 155  0002  1F0B        	clr bp
 155  0003  2800     R  	jmp _ISR_STM
 155  0004              ROMBANK 0 _ISR_STM
 155  0004              #pragma debug scope 1 1
 155  0004              @dummy56 endp
 155  0004              #pragma debug scope 21 1
 155  0000              _ISR_STM .section 'code'
 155  0000              _ISR_STM proc
 155  0000  0080     E  	mov r2,a
 155  0001  070A        	mov a, status
 155  0002  0080     E  	mov r3,a
 155  0003  0703        	mov a,mp
 155  0004  0080     E  	mov r4,a
 155  0005  0704        	mov a,sbp
 155  0006  0080     E  	mov r5,a
 155  0007  0707        	mov a,tblp
 155  0008  0080     E  	mov r6,a
 155  0009  0709        	mov a,tbhp
 155  000A  0080     E  	mov r7,a
 156  000B              #line 156 "D:\Users\IIIT\Desktop\Hall\Sevro_TM_button.c"
 156  000B  1500     R  	deca _AD10ms[0]
 156  000C  0080     E  	mov ra,a
 156  000D  1E00     E  	snz ra
 156  000E  2800     R  	jmp _L47
 156  000F              #line 156 "D:\Users\IIIT\Desktop\Hall\Sevro_TM_button.c"
"File: Sevro_TM_button.c  Assembler  Version HGASM0202      Page 18

 156  000F  0700     E  	mov a,ra
 156  0010  0080     R  	mov _AD10ms[0],a
 156  0011  2800     R  	jmp _L48
 156  0012              _L47:
 157  0012              #line 157 "D:\Users\IIIT\Desktop\Hall\Sevro_TM_button.c"
 157  0012  0F02        	mov a,2
 157  0013  0080     R  	mov _AD10ms[0],a
 158  0014              #line 158 "D:\Users\IIIT\Desktop\Hall\Sevro_TM_button.c"
 158  0014  33E8        	set [104].7
 158  0015  37E8        	clr [104].7
 159  0016              #line 159 "D:\Users\IIIT\Desktop\Hall\Sevro_TM_button.c"
 159  0016              ;# 159 "D:\Users\IIIT\Desktop\Hall\Sevro_TM_button.c" 1
 159  0016  0000        	nop
 160  0017              #line 160 "D:\Users\IIIT\Desktop\Hall\Sevro_TM_button.c"
 160  0017  076A        	mov a,[106]
 160  0018  0080     R  	mov _AxisX[0],a
 161  0019              #line 161 "D:\Users\IIIT\Desktop\Hall\Sevro_TM_button.c"
 161  0019              	fcall _XArrayPut
 162  0020              #line 162 "D:\Users\IIIT\Desktop\Hall\Sevro_TM_button.c"
 162  0020              	fcall _XArraySort
 162  0027              _L48:
 164  0027              #line 164 "D:\Users\IIIT\Desktop\Hall\Sevro_TM_button.c"
 164  0027  1500     R  	deca _Hall200ms[0]
 164  0028  0080     E  	mov ra,a
 164  0029  0700     E  	mov a,ra
 164  002A  0080     R  	mov _Hall200ms[0],a
 164  002B  1080     E  	sz ra
 164  002C  2800     R  	jmp _L49
 165  002D              #line 165 "D:\Users\IIIT\Desktop\Hall\Sevro_TM_button.c"
 165  002D  0700     R  	mov a,_HallCount[0]
 165  002E  0080     R  	mov _HallData[0],a
 166  002F              #line 166 "D:\Users\IIIT\Desktop\Hall\Sevro_TM_button.c"
 166  002F  1F00     R  	clr _HallCount[0]
 167  0030              #line 167 "D:\Users\IIIT\Desktop\Hall\Sevro_TM_button.c"
 167  0030  0F14        	mov a,20
 167  0031  0080     R  	mov _Hall200ms[0],a
 167  0032              _L49:
 169  0032              #line 169 "D:\Users\IIIT\Desktop\Hall\Sevro_TM_button.c"
 169  0032  1500     R  	deca _R1sec[0]
 169  0033  0080     E  	mov ra,a
 169  0034  0700     E  	mov a,ra
 169  0035  0080     R  	mov _R1sec[0],a
 169  0036  1080     E  	sz ra
 169  0037  2800     R  	jmp _L51
 170  0038              #line 170 "D:\Users\IIIT\Desktop\Hall\Sevro_TM_button.c"
 170  0038  0F64        	mov a,100
 170  0039  0080     R  	mov _R1sec[0],a
 171  003A              #line 171 "D:\Users\IIIT\Desktop\Hall\Sevro_TM_button.c"
 171  003A  3316        	set [22].6
 173  003B              #line 173 "D:\Users\IIIT\Desktop\Hall\Sevro_TM_button.c"
 173  003B  1400     R  	inca _SEC[0]
 173  003C  0080     E  	mov ra,a
 173  003D  0700     E  	mov a,ra
 173  003E  0080     R  	mov _SEC[0],a
 173  003F  0700     E  	mov a,ra
 173  0040  0A05        	sub a,5
 173  0041  390A        	snz z
 173  0042  2800     R  	jmp _L51
 175  0043              #line 175 "D:\Users\IIIT\Desktop\Hall\Sevro_TM_button.c"
 175  0043  1F00     R  	clr _SEC[0]
"File: Sevro_TM_button.c  Assembler  Version HGASM0202      Page 19

 176  0044              #line 176 "D:\Users\IIIT\Desktop\Hall\Sevro_TM_button.c"
 176  0044  3716        	clr [22].6
 176  0045              _L51:
 180  0045              #line 180 "D:\Users\IIIT\Desktop\Hall\Sevro_TM_button.c"
 180  0045  36B8        	clr [56].5
 180  0046  0700     E  	mov a,r2
 180  0047  008B        	mov bp,a
 180  0048  0700     E  	mov a,r3
 180  0049  008A        	mov status,a
 180  004A  0700     E  	mov a,r4
 180  004B  0083        	mov mp,a
 180  004C  0700     E  	mov a,r5
 180  004D  0084        	mov sbp,a
 180  004E  0700     E  	mov a,r6
 180  004F  0087        	mov tblp,a
 180  0050  0700     E  	mov a,r7
 180  0051  0089        	mov tbhp,a
 180  0052  1D05        	tabrdc acc
 180  0053  0700     E  	mov a,r1
 180  0054  0004        	reti
 180  0055              _ISR_STM endp
 180  0055              
 180  0055              #line 180 "D:\Users\IIIT\Desktop\Hall\Sevro_TM_button.c"
 180  0055              #pragma debug scope 1 1
  42  0055              #line 42 "D:\Users\IIIT\Desktop\Hall\Sevro_TM_button.c"
  42  0055              public _tempx
  42  0000              @HCCINIT0_tempx .section 'data'
  42  0000  0002[       _tempx	db 2 dup(0)
            00
            ]
  42  0002              #pragma debug variable 10 1 _tempx "tempx"
  42  0002              
  42  0000              @HCCINIT .section 'data'
  42  0000              #line 42 "D:\Users\IIIT\Desktop\Hall\Sevro_TM_button.c"
  42  0000              public _XArrSort
  42  0000              @HCCINIT0_XArrSort .section 'data'
  42  0000  000A[       _XArrSort	db 10 dup(0)
            00
            ]
  42  000A              #pragma debug array 42 12 5 1
  42  000A              #pragma debug array 42 12 5 1
  42  000A              #pragma debug variable 42 1 _XArrSort "XArrSort"
  42  000A              
  42  0000              @HCCINIT .section 'data'
  41  0000              #line 41 "D:\Users\IIIT\Desktop\Hall\Sevro_TM_button.c"
  41  0000              public _auto1
  41  0000              @HCCINIT0_auto1 .section 'data'
  41  0000  0002[       _auto1	db 2 dup(0)
            00
            ]
  41  0002              #pragma debug variable 9 1 _auto1 "auto1"
  41  0002              
  41  0000              @HCCINIT .section 'data'
  41  0000              #line 41 "D:\Users\IIIT\Desktop\Hall\Sevro_TM_button.c"
  41  0000              public _Index
  41  0000              @HCCINIT0_Index .section 'data'
  41  0000  0002[       _Index	db 2 dup(0)
            00
            ]
  41  0002              #pragma debug variable 9 1 _Index "Index"
"File: Sevro_TM_button.c  Assembler  Version HGASM0202      Page 20

  41  0002              
  41  0000              @HCCINIT .section 'data'
  41  0000              #line 41 "D:\Users\IIIT\Desktop\Hall\Sevro_TM_button.c"
  41  0000              public _temp
  41  0000              @HCCINIT0_temp .section 'data'
  41  0000  0002[       _temp	db 2 dup(0)
            00
            ]
  41  0002              #pragma debug variable 9 1 _temp "temp"
  41  0002              
  41  0000              @HCCINIT .section 'data'
  40  0000              #line 40 "D:\Users\IIIT\Desktop\Hall\Sevro_TM_button.c"
  40  0000              public _i
  40  0000              @HCCINIT0_i .section 'data'
  40  0000              _i	db 0
  40  0001              #pragma debug variable 8 1 _i "i"
  40  0001              
  40  0000              @HCCINIT .section 'data'
  40  0000              #line 40 "D:\Users\IIIT\Desktop\Hall\Sevro_TM_button.c"
  40  0000              public _Whell100ms
  40  0000              @HCCINIT0_Whell100ms .section 'data'
  40  0000              _Whell100ms	db 0
  40  0001              #pragma debug variable 8 1 _Whell100ms "Whell100ms"
  40  0001              
  40  0000              @HCCINIT .section 'data'
  40  0000              #line 40 "D:\Users\IIIT\Desktop\Hall\Sevro_TM_button.c"
  40  0000              public _Whell
  40  0000              @HCCINIT0_Whell .section 'data'
  40  0000              _Whell	db 0
  40  0001              #pragma debug variable 8 1 _Whell "Whell"
  40  0001              
  40  0000              @HCCINIT .section 'data'
  40  0000              #line 40 "D:\Users\IIIT\Desktop\Hall\Sevro_TM_button.c"
  40  0000              public _Hall200ms
  40  0000              @HCCINIT0_Hall200ms .section 'data'
  40  0000              _Hall200ms	db 0
  40  0001              #pragma debug variable 8 1 _Hall200ms "Hall200ms"
  40  0001              
  40  0000              @HCCINIT .section 'data'
  40  0000              #line 40 "D:\Users\IIIT\Desktop\Hall\Sevro_TM_button.c"
  40  0000              public _AD10ms
  40  0000              @HCCINIT0_AD10ms .section 'data'
  40  0000              _AD10ms	db 0
  40  0001              #pragma debug variable 8 1 _AD10ms "AD10ms"
  40  0001              
  40  0000              @HCCINIT .section 'data'
  40  0000              #line 40 "D:\Users\IIIT\Desktop\Hall\Sevro_TM_button.c"
  40  0000              public _R1sec
  40  0000              @HCCINIT0_R1sec .section 'data'
  40  0000              _R1sec	db 0
  40  0001              #pragma debug variable 8 1 _R1sec "R1sec"
  40  0001              
  40  0000              @HCCINIT .section 'data'
  40  0000              #line 40 "D:\Users\IIIT\Desktop\Hall\Sevro_TM_button.c"
  40  0000              public _SEC
  40  0000              @HCCINIT0_SEC .section 'data'
  40  0000              _SEC	db 0
  40  0001              #pragma debug variable 8 1 _SEC "SEC"
  40  0001              
  40  0000              @HCCINIT .section 'data'
"File: Sevro_TM_button.c  Assembler  Version HGASM0202      Page 21

  40  0000              public _XArrAvg
  40  0000              @HCCINIT	.section 'data'
  26  0000              #line 26 "D:\Users\IIIT\Desktop\Hall\Sevro_TM_button.c"
  26  0000              @HCCINIT_XArrAvg .section 'data'
  26  0000              _XArrAvg label byte
  26  0000              #pragma debug variable 10 1 _XArrAvg "XArrAvg"
  26  0000              	db 0
  26  0000              @ROMDATA_BASE .section inpage 'code'
  26  0000              	db 0
  26  0001              @HCCINIT_XArrAvg .section 'data'
  26  0001              	db 0
  26  0001              @ROMDATA_BASE .section inpage 'code'
  26  0001              	db 0
  26  0002              @HCCINIT_XArrAvg .section 'data'
  26  0002              #line 26 "D:\Users\IIIT\Desktop\Hall\Sevro_TM_button.c"
  26  0002              public _ADx
  26  0000              @HCCINIT0_ADx .section 'data'
  26  0000  0002[       _ADx	db 2 dup(0)
            00
            ]
  26  0002              #pragma debug variable 10 1 _ADx "ADx"
  26  0002              
  26  0000              @HCCINIT .section 'data'
  26  0000              #line 26 "D:\Users\IIIT\Desktop\Hall\Sevro_TM_button.c"
  26  0000              public _XArr
  26  0000              @HCCINIT0_XArr .section 'data'
  26  0000  000A[       _XArr	db 10 dup(0)
            00
            ]
  26  000A              #pragma debug variable 42 1 _XArr "XArr"
  26  000A              
  26  0000              @HCCINIT .section 'data'
  26  0000              public _HallCount
  25  0000              #line 25 "D:\Users\IIIT\Desktop\Hall\Sevro_TM_button.c"
  25  0000              @HCCINIT_HallCount .section 'data'
  25  0000              _HallCount label byte
  25  0000              #pragma debug variable 8 1 _HallCount "HallCount"
  25  0000              	db 0
  25  0001              @ROMDATA_BASE .section inpage 'code'
  25  0001              	db 0
  25  0001              @HCCINIT_HallCount .section 'data'
  24  0001              #line 24 "D:\Users\IIIT\Desktop\Hall\Sevro_TM_button.c"
  24  0001              public _HallData
  24  0000              @HCCINIT0_HallData .section 'data'
  24  0000              _HallData	db 0
  24  0001              #pragma debug variable 8 1 _HallData "HallData"
  24  0001              
  24  0000              @HCCINIT .section 'data'
  23  0000              #line 23 "D:\Users\IIIT\Desktop\Hall\Sevro_TM_button.c"
  23  0000              public _HallSUM
  23  0000              @HCCINIT0_HallSUM .section 'data'
  23  0000              _HallSUM	db 0
  23  0001              #pragma debug variable 8 1 _HallSUM "HallSUM"
  23  0001              
  23  0000              @HCCINIT .section 'data'
  23  0000              #line 23 "D:\Users\IIIT\Desktop\Hall\Sevro_TM_button.c"
  23  0000              public _HallCRC
  23  0000              @HCCINIT0_HallCRC .section 'data'
  23  0000              _HallCRC	db 0
  23  0001              #pragma debug variable 8 1 _HallCRC "HallCRC"
"File: Sevro_TM_button.c  Assembler  Version HGASM0202      Page 22

  23  0001              
  23  0000              @HCCINIT .section 'data'
  22  0000              #line 22 "D:\Users\IIIT\Desktop\Hall\Sevro_TM_button.c"
  22  0000              public _AXSUM
  22  0000              @HCCINIT0_AXSUM .section 'data'
  22  0000              _AXSUM	db 0
  22  0001              #pragma debug variable 8 1 _AXSUM "AXSUM"
  22  0001              
  22  0000              @HCCINIT .section 'data'
  22  0000              #line 22 "D:\Users\IIIT\Desktop\Hall\Sevro_TM_button.c"
  22  0000              public _AXCRC
  22  0000              @HCCINIT0_AXCRC .section 'data'
  22  0000              _AXCRC	db 0
  22  0001              #pragma debug variable 8 1 _AXCRC "AXCRC"
  22  0001              
  22  0000              @HCCINIT .section 'data'
  20  0000              #line 20 "D:\Users\IIIT\Desktop\Hall\Sevro_TM_button.c"
  20  0000              public _HallHead
  20  0000              @HCCINIT0_HallHead .section 'data'
  20  0000              _HallHead	db 0
  20  0001              #pragma debug variable 8 1 _HallHead "HallHead"
  20  0001              
  20  0000              @HCCINIT .section 'data'
  19  0000              #line 19 "D:\Users\IIIT\Desktop\Hall\Sevro_TM_button.c"
  19  0000              public _Head
  19  0000              @HCCINIT0_Head .section 'data'
  19  0000              _Head	db 0
  19  0001              #pragma debug variable 8 1 _Head "Head"
  19  0001              
  19  0000              @HCCINIT .section 'data'
  18  0000              #line 18 "D:\Users\IIIT\Desktop\Hall\Sevro_TM_button.c"
  18  0000              public _AxisX
  18  0000              @HCCINIT0_AxisX .section 'data'
  18  0000              _AxisX	db 0
  18  0001              #pragma debug variable 8 1 _AxisX "AxisX"
  18  0001              
  18  0000              @HCCINIT .section 'data'
  18  0000              #pragma debug struct_end
  18  0000              #pragma debug struct_end
  18  0000              #pragma debug union_end
  18  0000              #pragma debug union_end
  18  0000              #pragma debug variable 44 1 ___papu "__papu" 1
  18  0000              #pragma debug struct_end
  18  0000              #pragma debug struct_end
  18  0000              #pragma debug union_end
  18  0000              #pragma debug union_end
  18  0000              #pragma debug variable 46 1 ___pac "__pac" 1
  18  0000              #pragma debug struct_end
  18  0000              #pragma debug struct_end
  18  0000              #pragma debug union_end
  18  0000              #pragma debug union_end
  18  0000              #pragma debug variable 48 1 ___pb "__pb" 1
  18  0000              #pragma debug struct_end
  18  0000              #pragma debug struct_end
  18  0000              #pragma debug union_end
  18  0000              #pragma debug union_end
  18  0000              #pragma debug variable 50 1 ___pc "__pc" 1
  18  0000              #pragma debug struct_end
  18  0000              #pragma debug struct_end
  18  0000              #pragma debug union_end
"File: Sevro_TM_button.c  Assembler  Version HGASM0202      Page 23

  18  0000              #pragma debug union_end
  18  0000              #pragma debug variable 52 1 ___pcc "__pcc" 1
  18  0000              #pragma debug struct_end
  18  0000              #pragma debug struct_end
  18  0000              #pragma debug union_end
  18  0000              #pragma debug union_end
  18  0000              #pragma debug variable 54 1 ___pepu "__pepu" 1
  18  0000              #pragma debug struct_end
  18  0000              #pragma debug struct_end
  18  0000              #pragma debug union_end
  18  0000              #pragma debug union_end
  18  0000              #pragma debug variable 56 1 ___pec "__pec" 1
  18  0000              #pragma debug struct_end
  18  0000              #pragma debug struct_end
  18  0000              #pragma debug union_end
  18  0000              #pragma debug union_end
  18  0000              #pragma debug variable 58 1 ___intc0 "__intc0" 1
  18  0000              #pragma debug struct_end
  18  0000              #pragma debug struct_end
  18  0000              #pragma debug union_end
  18  0000              #pragma debug union_end
  18  0000              #pragma debug variable 60 1 ___intc3 "__intc3" 1
  18  0000              #pragma debug struct_end
  18  0000              #pragma debug struct_end
  18  0000              #pragma debug union_end
  18  0000              #pragma debug union_end
  18  0000              #pragma debug variable 62 1 ___mfi0 "__mfi0" 1
  18  0000              #pragma debug struct_end
  18  0000              #pragma debug struct_end
  18  0000              #pragma debug union_end
  18  0000              #pragma debug union_end
  18  0000              #pragma debug variable 64 1 ___mfi4 "__mfi4" 1
  18  0000              #pragma debug struct_end
  18  0000              #pragma debug struct_end
  18  0000              #pragma debug union_end
  18  0000              #pragma debug union_end
  18  0000              #pragma debug variable 66 1 ___integ "__integ" 1
  18  0000              #pragma debug struct_end
  18  0000              #pragma debug struct_end
  18  0000              #pragma debug union_end
  18  0000              #pragma debug union_end
  18  0000              #pragma debug variable 68 1 ___wdtc "__wdtc" 1
  18  0000              #pragma debug struct_end
  18  0000              #pragma debug struct_end
  18  0000              #pragma debug union_end
  18  0000              #pragma debug union_end
  18  0000              #pragma debug variable 70 1 ___tm2c0 "__tm2c0" 1
  18  0000              #pragma debug struct_end
  18  0000              #pragma debug struct_end
  18  0000              #pragma debug union_end
  18  0000              #pragma debug union_end
  18  0000              #pragma debug variable 72 1 ___tm2c1 "__tm2c1" 1
  18  0000              #pragma debug variable 8 1 ___tm2al "__tm2al" 1
  18  0000              #pragma debug variable 8 1 ___tm2ah "__tm2ah" 1
  18  0000              #pragma debug variable 8 1 ___tm2rp "__tm2rp" 1
  18  0000              #pragma debug struct_end
  18  0000              #pragma debug struct_end
  18  0000              #pragma debug union_end
  18  0000              #pragma debug union_end
  18  0000              #pragma debug variable 74 1 ___tm0c0 "__tm0c0" 1
"File: Sevro_TM_button.c  Assembler  Version HGASM0202      Page 24

  18  0000              #pragma debug struct_end
  18  0000              #pragma debug struct_end
  18  0000              #pragma debug union_end
  18  0000              #pragma debug union_end
  18  0000              #pragma debug variable 76 1 ___tm0c1 "__tm0c1" 1
  18  0000              #pragma debug variable 8 1 ___tm0al "__tm0al" 1
  18  0000              #pragma debug variable 8 1 ___tm0ah "__tm0ah" 1
  18  0000              #pragma debug struct_end
  18  0000              #pragma debug struct_end
  18  0000              #pragma debug union_end
  18  0000              #pragma debug union_end
  18  0000              #pragma debug variable 78 1 ___adcr0 "__adcr0" 1
  18  0000              #pragma debug struct_end
  18  0000              #pragma debug struct_end
  18  0000              #pragma debug union_end
  18  0000              #pragma debug union_end
  18  0000              #pragma debug variable 80 1 ___adcr1 "__adcr1" 1
  18  0000              #pragma debug variable 8 1 ___adrl "__adrl" 1
  18  0000              #pragma debug struct_end
  18  0000              #pragma debug struct_end
  18  0000              #pragma debug union_end
  18  0000              #pragma debug union_end
  18  0000              #pragma debug variable 82 1 ___ifs0 "__ifs0" 1
  18  0000              #pragma debug struct_end
  18  0000              #pragma debug struct_end
  18  0000              #pragma debug union_end
  18  0000              #pragma debug union_end
  18  0000              #pragma debug variable 84 1 ___ifs1 "__ifs1" 1
  18  0000              #pragma debug struct_end
  18  0000              #pragma debug struct_end
  18  0000              #pragma debug union_end
  18  0000              #pragma debug union_end
  18  0000              #pragma debug variable 86 1 ___tm4c0 "__tm4c0" 1
  18  0000              #pragma debug struct_end
  18  0000              #pragma debug struct_end
  18  0000              #pragma debug union_end
  18  0000              #pragma debug union_end
  18  0000              #pragma debug variable 88 1 ___tm4c1 "__tm4c1" 1
  18  0000              #pragma debug variable 8 1 ___tm4al "__tm4al" 1
  18  0000              #pragma debug variable 8 1 ___tm4ah "__tm4ah" 1
  18  0000              #pragma debug struct_end
  18  0000              #pragma debug struct_end
  18  0000              #pragma debug union_end
  18  0000              #pragma debug union_end
  18  0000              #pragma debug variable 90 1 ___pas0 "__pas0" 1
  18  0000              #pragma debug struct_end
  18  0000              #pragma debug struct_end
  18  0000              #pragma debug union_end
  18  0000              #pragma debug union_end
  18  0000              #pragma debug variable 92 1 ___pas3 "__pas3" 1
  18  0000              #pragma debug struct_end
  18  0000              #pragma debug struct_end
  18  0000              #pragma debug union_end
  18  0000              #pragma debug union_end
  18  0000              #pragma debug variable 94 1 ___pds2 "__pds2" 1
  18  0000              extern r1:byte
  18  0000              extern r2:byte
  18  0000              extern r3:byte
  18  0000              extern r4:byte
  18  0000              extern r5:byte
"File: Sevro_TM_button.c  Assembler  Version HGASM0202      Page 25

  18  0000              extern r6:byte
  18  0000              extern r7:byte
  59  0000              #line 59 "D:\Users\IIIT\Desktop\Hall\Sevro_TM_button.c"
  59  0000              @code .section at 0 'code'
  59  0000  1F0B        	clr bp
  59  0001  2800     R  	jmp _main_startup1
  59  0002              
  59  0002              extern _builtin_holtek_mulhi3_2:byte
  59  0002              extern _builtin_holtek_mulhi3:near
  59  0002              extern _builtin_holtek_udivmodhi4_2:byte
  59  0002              extern _builtin_holtek_udivmodhi4:near
  59  0002              
  59  0002              ; 
  59  0002              ; Generated by holtek-gcc v3.18, Sun Nov 11 23:07:51 2018
  59  0002              ; Rebuild 521
  59  0002              ; end of file


        0 Errors, 0